<?xml version="1.0" encoding="utf-8"?>
<?xml-stylesheet type="text/xsl" href="pdml2html.xsl"?>
<!-- You can find pdml2html.xsl in C:\Program Files\Wireshark or at https://code.wireshark.org/review/gitweb?p=wireshark.git;a=blob_plain;f=pdml2html.xsl. -->
<pdml version="0" creator="wireshark/2.4.2" time="Tue May 15 01:08:09 2018" capture_file="C:\Users\xeroj\Desktop\Local_Programming\Python-Software-GUI\example\icmp.pcap">
<packet>
  <proto name="geninfo" pos="0" showname="General information" size="74">
    <field name="num" pos="0" show="1" showname="Number" value="1" size="74"/>
    <field name="len" pos="0" show="74" showname="Frame Length" value="4a" size="74"/>
    <field name="caplen" pos="0" show="74" showname="Captured Length" value="4a" size="74"/>
    <field name="timestamp" pos="0" show="Jun 26, 2011 21:21:27.024263000 Mountain Daylight Time" showname="Captured Time" value="1309144887.024263000" size="74"/>
  </proto>
  <proto name="frame" showname="Frame 1: 74 bytes on wire (592 bits), 74 bytes captured (592 bits)" size="74" pos="0">
    <field name="frame.encap_type" showname="Encapsulation type: Ethernet (1)" size="0" pos="0" show="1"/>
    <field name="frame.time" showname="Arrival Time: Jun 26, 2011 21:21:27.024263000 Mountain Daylight Time" size="0" pos="0" show="Jun 26, 2011 21:21:27.024263000 Mountain Daylight Time"/>
    <field name="frame.offset_shift" showname="Time shift for this packet: 0.000000000 seconds" size="0" pos="0" show="0.000000000"/>
    <field name="frame.time_epoch" showname="Epoch Time: 1309144887.024263000 seconds" size="0" pos="0" show="1309144887.024263000"/>
    <field name="frame.time_delta" showname="Time delta from previous captured frame: 0.000000000 seconds" size="0" pos="0" show="0.000000000"/>
    <field name="frame.time_delta_displayed" showname="Time delta from previous displayed frame: 0.000000000 seconds" size="0" pos="0" show="0.000000000"/>
    <field name="frame.time_relative" showname="Time since reference or first frame: 0.000000000 seconds" size="0" pos="0" show="0.000000000"/>
    <field name="frame.number" showname="Frame Number: 1" size="0" pos="0" show="1"/>
    <field name="frame.len" showname="Frame Length: 74 bytes (592 bits)" size="0" pos="0" show="74"/>
    <field name="frame.cap_len" showname="Capture Length: 74 bytes (592 bits)" size="0" pos="0" show="74"/>
    <field name="frame.marked" showname="Frame is marked: False" size="0" pos="0" show="0"/>
    <field name="frame.ignored" showname="Frame is ignored: False" size="0" pos="0" show="0"/>
    <field name="frame.protocols" showname="Protocols in frame: eth:ethertype:ip:myicmp" size="0" pos="0" show="eth:ethertype:ip:myicmp"/>
  </proto>
  <proto name="eth" showname="Ethernet II, Src: LiteonTe_3f:98:91 (00:22:5f:3f:98:91), Dst: Cisco_13:b9:a0 (00:0c:ce:13:b9:a0)" size="14" pos="0">
    <field name="eth.dst" showname="Destination: Cisco_13:b9:a0 (00:0c:ce:13:b9:a0)" size="6" pos="0" show="00:0c:ce:13:b9:a0" value="000cce13b9a0">
      <field name="eth.dst_resolved" showname="Destination (resolved): Cisco_13:b9:a0" size="6" pos="0" show="Cisco_13:b9:a0" value="000cce13b9a0"/>
      <field name="eth.addr" showname="Address: Cisco_13:b9:a0 (00:0c:ce:13:b9:a0)" size="6" pos="0" show="00:0c:ce:13:b9:a0" value="000cce13b9a0"/>
      <field name="eth.addr_resolved" showname="Address (resolved): Cisco_13:b9:a0" size="6" pos="0" show="Cisco_13:b9:a0" value="000cce13b9a0"/>
      <field name="eth.lg" showname=".... ..0. .... .... .... .... = LG bit: Globally unique address (factory default)" size="3" pos="0" show="0" value="0" unmaskedvalue="000cce"/>
      <field name="eth.ig" showname=".... ...0 .... .... .... .... = IG bit: Individual address (unicast)" size="3" pos="0" show="0" value="0" unmaskedvalue="000cce"/>
    </field>
    <field name="eth.src" showname="Source: LiteonTe_3f:98:91 (00:22:5f:3f:98:91)" size="6" pos="6" show="00:22:5f:3f:98:91" value="00225f3f9891">
      <field name="eth.src_resolved" showname="Source (resolved): LiteonTe_3f:98:91" size="6" pos="6" show="LiteonTe_3f:98:91" value="00225f3f9891"/>
      <field name="eth.addr" showname="Address: LiteonTe_3f:98:91 (00:22:5f:3f:98:91)" size="6" pos="6" show="00:22:5f:3f:98:91" value="00225f3f9891"/>
      <field name="eth.addr_resolved" showname="Address (resolved): LiteonTe_3f:98:91" size="6" pos="6" show="LiteonTe_3f:98:91" value="00225f3f9891"/>
      <field name="eth.lg" showname=".... ..0. .... .... .... .... = LG bit: Globally unique address (factory default)" size="3" pos="6" show="0" value="0" unmaskedvalue="00225f"/>
      <field name="eth.ig" showname=".... ...0 .... .... .... .... = IG bit: Individual address (unicast)" size="3" pos="6" show="0" value="0" unmaskedvalue="00225f"/>
    </field>
    <field name="eth.type" showname="Type: IPv4 (0x0800)" size="2" pos="12" show="0x00000800" value="0800"/>
  </proto>
  <proto name="ip" showname="Internet Protocol Version 4, Src: 192.168.0.89, Dst: 192.168.0.1" size="20" pos="14">
    <field name="ip.version" showname="0100 .... = Version: 4" size="1" pos="14" show="4" value="4" unmaskedvalue="45"/>
    <field name="ip.hdr_len" showname=".... 0101 = Header Length: 20 bytes (5)" size="1" pos="14" show="20" value="45"/>
    <field name="ip.dsfield" showname="Differentiated Services Field: 0x00 (DSCP: CS0, ECN: Not-ECT)" size="1" pos="15" show="0x00000000" value="00">
      <field name="ip.dsfield.dscp" showname="0000 00.. = Differentiated Services Codepoint: Default (0)" size="1" pos="15" show="0" value="0" unmaskedvalue="00"/>
      <field name="ip.dsfield.ecn" showname=".... ..00 = Explicit Congestion Notification: Not ECN-Capable Transport (0)" size="1" pos="15" show="0" value="0" unmaskedvalue="00"/>
    </field>
    <field name="ip.len" showname="Total Length: 60" size="2" pos="16" show="60" value="003c"/>
    <field name="ip.id" showname="Identification: 0xc63e (50750)" size="2" pos="18" show="0x0000c63e" value="c63e"/>
    <field name="ip.flags" showname="Flags: 0x00" size="1" pos="20" show="0x00000000" value="00">
      <field name="ip.flags.rb" showname="0... .... = Reserved bit: Not set" size="1" pos="20" show="0" value="00"/>
      <field name="ip.flags.df" showname=".0.. .... = Don&#x27;t fragment: Not set" size="1" pos="20" show="0" value="00"/>
      <field name="ip.flags.mf" showname="..0. .... = More fragments: Not set" size="1" pos="20" show="0" value="00"/>
    </field>
    <field name="ip.frag_offset" showname="Fragment offset: 0" size="2" pos="20" show="0" value="0000"/>
    <field name="ip.ttl" showname="Time to live: 128" size="1" pos="22" show="128" value="80"/>
    <field name="ip.proto" showname="Protocol: ICMP (1)" size="1" pos="23" show="1" value="01"/>
    <field name="ip.checksum" showname="Header checksum: 0xf2d7 [validation disabled]" size="2" pos="24" show="0x0000f2d7" value="f2d7"/>
    <field name="ip.checksum.status" showname="Header checksum status: Unverified" size="0" pos="24" show="2"/>
    <field name="ip.src" showname="Source: 192.168.0.89" size="4" pos="26" show="192.168.0.89" value="c0a80059"/>
    <field name="ip.addr" showname="Source or Destination Address: 192.168.0.89" size="4" pos="26" show="192.168.0.89" value="c0a80059"/>
    <field name="ip.src_host" showname="Source Host: 192.168.0.89" size="4" pos="26" show="192.168.0.89" value="c0a80059"/>
    <field name="ip.host" showname="Source or Destination Host: 192.168.0.89" size="4" pos="26" show="192.168.0.89" value="c0a80059"/>
    <field name="ip.dst" showname="Destination: 192.168.0.1" size="4" pos="30" show="192.168.0.1" value="c0a80001"/>
    <field name="ip.addr" showname="Source or Destination Address: 192.168.0.1" size="4" pos="30" show="192.168.0.1" value="c0a80001"/>
    <field name="ip.dst_host" showname="Destination Host: 192.168.0.1" size="4" pos="30" show="192.168.0.1" value="c0a80001"/>
    <field name="ip.host" showname="Source or Destination Host: 192.168.0.1" size="4" pos="30" show="192.168.0.1" value="c0a80001"/>
    <field name="" show="Source GeoIP: Unknown" size="4" pos="26" value="c0a80059"/>
    <field name="" show="Destination GeoIP: Unknown" size="4" pos="30" value="c0a80001"/>
  </proto>
  <proto name="fake-field-wrapper">
  <field name="_ws.lua.fake" showname="Wireshark Lua fake item" size="0" pos="34" show="" value=""/>
</proto>
<proto name="myicmp" showname="MyICMP Protocol" size="40" pos="34">
  <proto name="fake-field-wrapper">
  <field name="mydns.type" showname=".... 1000 = Type: Echo Request (8)" size="1" pos="34" show="8" value="8" unmaskedvalue="08"/>
</proto>
<field name="mydns.code" showname="Code: 0" size="1" pos="35" show="0" value="00"/>
<field name="mydns.checksum" showname="Checksum: 16988" size="2" pos="36" show="16988" value="425c"/>
</proto>
</packet>


<packet>
  <proto name="geninfo" pos="0" showname="General information" size="74">
    <field name="num" pos="0" show="2" showname="Number" value="2" size="74"/>
    <field name="len" pos="0" show="74" showname="Frame Length" value="4a" size="74"/>
    <field name="caplen" pos="0" show="74" showname="Captured Length" value="4a" size="74"/>
    <field name="timestamp" pos="0" show="Jun 26, 2011 21:21:27.024291000 Mountain Daylight Time" showname="Captured Time" value="1309144887.024291000" size="74"/>
  </proto>
  <proto name="frame" showname="Frame 2: 74 bytes on wire (592 bits), 74 bytes captured (592 bits)" size="74" pos="0">
    <field name="frame.encap_type" showname="Encapsulation type: Ethernet (1)" size="0" pos="0" show="1"/>
    <field name="frame.time" showname="Arrival Time: Jun 26, 2011 21:21:27.024291000 Mountain Daylight Time" size="0" pos="0" show="Jun 26, 2011 21:21:27.024291000 Mountain Daylight Time"/>
    <field name="frame.offset_shift" showname="Time shift for this packet: 0.000000000 seconds" size="0" pos="0" show="0.000000000"/>
    <field name="frame.time_epoch" showname="Epoch Time: 1309144887.024291000 seconds" size="0" pos="0" show="1309144887.024291000"/>
    <field name="frame.time_delta" showname="Time delta from previous captured frame: 0.000028000 seconds" size="0" pos="0" show="0.000028000"/>
    <field name="frame.time_delta_displayed" showname="Time delta from previous displayed frame: 0.000028000 seconds" size="0" pos="0" show="0.000028000"/>
    <field name="frame.time_relative" showname="Time since reference or first frame: 0.000028000 seconds" size="0" pos="0" show="0.000028000"/>
    <field name="frame.number" showname="Frame Number: 2" size="0" pos="0" show="2"/>
    <field name="frame.len" showname="Frame Length: 74 bytes (592 bits)" size="0" pos="0" show="74"/>
    <field name="frame.cap_len" showname="Capture Length: 74 bytes (592 bits)" size="0" pos="0" show="74"/>
    <field name="frame.marked" showname="Frame is marked: False" size="0" pos="0" show="0"/>
    <field name="frame.ignored" showname="Frame is ignored: False" size="0" pos="0" show="0"/>
    <field name="frame.protocols" showname="Protocols in frame: eth:ethertype:ip:myicmp" size="0" pos="0" show="eth:ethertype:ip:myicmp"/>
  </proto>
  <proto name="eth" showname="Ethernet II, Src: LiteonTe_3f:98:91 (00:22:5f:3f:98:91), Dst: Cisco_13:b9:a0 (00:0c:ce:13:b9:a0)" size="14" pos="0">
    <field name="eth.dst" showname="Destination: Cisco_13:b9:a0 (00:0c:ce:13:b9:a0)" size="6" pos="0" show="00:0c:ce:13:b9:a0" value="000cce13b9a0">
      <field name="eth.dst_resolved" showname="Destination (resolved): Cisco_13:b9:a0" size="6" pos="0" show="Cisco_13:b9:a0" value="000cce13b9a0"/>
      <field name="eth.addr" showname="Address: Cisco_13:b9:a0 (00:0c:ce:13:b9:a0)" size="6" pos="0" show="00:0c:ce:13:b9:a0" value="000cce13b9a0"/>
      <field name="eth.addr_resolved" showname="Address (resolved): Cisco_13:b9:a0" size="6" pos="0" show="Cisco_13:b9:a0" value="000cce13b9a0"/>
      <field name="eth.lg" showname=".... ..0. .... .... .... .... = LG bit: Globally unique address (factory default)" size="3" pos="0" show="0" value="0" unmaskedvalue="000cce"/>
      <field name="eth.ig" showname=".... ...0 .... .... .... .... = IG bit: Individual address (unicast)" size="3" pos="0" show="0" value="0" unmaskedvalue="000cce"/>
    </field>
    <field name="eth.src" showname="Source: LiteonTe_3f:98:91 (00:22:5f:3f:98:91)" size="6" pos="6" show="00:22:5f:3f:98:91" value="00225f3f9891">
      <field name="eth.src_resolved" showname="Source (resolved): LiteonTe_3f:98:91" size="6" pos="6" show="LiteonTe_3f:98:91" value="00225f3f9891"/>
      <field name="eth.addr" showname="Address: LiteonTe_3f:98:91 (00:22:5f:3f:98:91)" size="6" pos="6" show="00:22:5f:3f:98:91" value="00225f3f9891"/>
      <field name="eth.addr_resolved" showname="Address (resolved): LiteonTe_3f:98:91" size="6" pos="6" show="LiteonTe_3f:98:91" value="00225f3f9891"/>
      <field name="eth.lg" showname=".... ..0. .... .... .... .... = LG bit: Globally unique address (factory default)" size="3" pos="6" show="0" value="0" unmaskedvalue="00225f"/>
      <field name="eth.ig" showname=".... ...0 .... .... .... .... = IG bit: Individual address (unicast)" size="3" pos="6" show="0" value="0" unmaskedvalue="00225f"/>
    </field>
    <field name="eth.type" showname="Type: IPv4 (0x0800)" size="2" pos="12" show="0x00000800" value="0800"/>
  </proto>
  <proto name="ip" showname="Internet Protocol Version 4, Src: 192.168.0.89, Dst: 192.168.0.1" size="20" pos="14">
    <field name="ip.version" showname="0100 .... = Version: 4" size="1" pos="14" show="4" value="4" unmaskedvalue="45"/>
    <field name="ip.hdr_len" showname=".... 0101 = Header Length: 20 bytes (5)" size="1" pos="14" show="20" value="45"/>
    <field name="ip.dsfield" showname="Differentiated Services Field: 0x00 (DSCP: CS0, ECN: Not-ECT)" size="1" pos="15" show="0x00000000" value="00">
      <field name="ip.dsfield.dscp" showname="0000 00.. = Differentiated Services Codepoint: Default (0)" size="1" pos="15" show="0" value="0" unmaskedvalue="00"/>
      <field name="ip.dsfield.ecn" showname=".... ..00 = Explicit Congestion Notification: Not ECN-Capable Transport (0)" size="1" pos="15" show="0" value="0" unmaskedvalue="00"/>
    </field>
    <field name="ip.len" showname="Total Length: 60" size="2" pos="16" show="60" value="003c"/>
    <field name="ip.id" showname="Identification: 0xc63e (50750)" size="2" pos="18" show="0x0000c63e" value="c63e"/>
    <field name="ip.flags" showname="Flags: 0x00" size="1" pos="20" show="0x00000000" value="00">
      <field name="ip.flags.rb" showname="0... .... = Reserved bit: Not set" size="1" pos="20" show="0" value="00"/>
      <field name="ip.flags.df" showname=".0.. .... = Don&#x27;t fragment: Not set" size="1" pos="20" show="0" value="00"/>
      <field name="ip.flags.mf" showname="..0. .... = More fragments: Not set" size="1" pos="20" show="0" value="00"/>
    </field>
    <field name="ip.frag_offset" showname="Fragment offset: 0" size="2" pos="20" show="0" value="0000"/>
    <field name="ip.ttl" showname="Time to live: 128" size="1" pos="22" show="128" value="80"/>
    <field name="ip.proto" showname="Protocol: ICMP (1)" size="1" pos="23" show="1" value="01"/>
    <field name="ip.checksum" showname="Header checksum: 0xf2d7 [validation disabled]" size="2" pos="24" show="0x0000f2d7" value="f2d7"/>
    <field name="ip.checksum.status" showname="Header checksum status: Unverified" size="0" pos="24" show="2"/>
    <field name="ip.src" showname="Source: 192.168.0.89" size="4" pos="26" show="192.168.0.89" value="c0a80059"/>
    <field name="ip.addr" showname="Source or Destination Address: 192.168.0.89" size="4" pos="26" show="192.168.0.89" value="c0a80059"/>
    <field name="ip.src_host" showname="Source Host: 192.168.0.89" size="4" pos="26" show="192.168.0.89" value="c0a80059"/>
    <field name="ip.host" showname="Source or Destination Host: 192.168.0.89" size="4" pos="26" show="192.168.0.89" value="c0a80059"/>
    <field name="ip.dst" showname="Destination: 192.168.0.1" size="4" pos="30" show="192.168.0.1" value="c0a80001"/>
    <field name="ip.addr" showname="Source or Destination Address: 192.168.0.1" size="4" pos="30" show="192.168.0.1" value="c0a80001"/>
    <field name="ip.dst_host" showname="Destination Host: 192.168.0.1" size="4" pos="30" show="192.168.0.1" value="c0a80001"/>
    <field name="ip.host" showname="Source or Destination Host: 192.168.0.1" size="4" pos="30" show="192.168.0.1" value="c0a80001"/>
    <field name="" show="Source GeoIP: Unknown" size="4" pos="26" value="c0a80059"/>
    <field name="" show="Destination GeoIP: Unknown" size="4" pos="30" value="c0a80001"/>
  </proto>
  <proto name="fake-field-wrapper">
  <field name="_ws.lua.fake" showname="Wireshark Lua fake item" size="0" pos="34" show="" value=""/>
</proto>
<proto name="myicmp" showname="MyICMP Protocol" size="40" pos="34">
  <proto name="fake-field-wrapper">
  <field name="mydns.type" showname=".... 1000 = Type: Echo Request (8)" size="1" pos="34" show="8" value="8" unmaskedvalue="08"/>
</proto>
<field name="mydns.code" showname="Code: 0" size="1" pos="35" show="0" value="00"/>
<field name="mydns.checksum" showname="Checksum: 16988" size="2" pos="36" show="16988" value="425c"/>
</proto>
</packet>


<packet>
  <proto name="geninfo" pos="0" showname="General information" size="74">
    <field name="num" pos="0" show="3" showname="Number" value="3" size="74"/>
    <field name="len" pos="0" show="74" showname="Frame Length" value="4a" size="74"/>
    <field name="caplen" pos="0" show="74" showname="Captured Length" value="4a" size="74"/>
    <field name="timestamp" pos="0" show="Jun 26, 2011 21:21:27.028177000 Mountain Daylight Time" showname="Captured Time" value="1309144887.028177000" size="74"/>
  </proto>
  <proto name="frame" showname="Frame 3: 74 bytes on wire (592 bits), 74 bytes captured (592 bits)" size="74" pos="0">
    <field name="frame.encap_type" showname="Encapsulation type: Ethernet (1)" size="0" pos="0" show="1"/>
    <field name="frame.time" showname="Arrival Time: Jun 26, 2011 21:21:27.028177000 Mountain Daylight Time" size="0" pos="0" show="Jun 26, 2011 21:21:27.028177000 Mountain Daylight Time"/>
    <field name="frame.offset_shift" showname="Time shift for this packet: 0.000000000 seconds" size="0" pos="0" show="0.000000000"/>
    <field name="frame.time_epoch" showname="Epoch Time: 1309144887.028177000 seconds" size="0" pos="0" show="1309144887.028177000"/>
    <field name="frame.time_delta" showname="Time delta from previous captured frame: 0.003886000 seconds" size="0" pos="0" show="0.003886000"/>
    <field name="frame.time_delta_displayed" showname="Time delta from previous displayed frame: 0.003886000 seconds" size="0" pos="0" show="0.003886000"/>
    <field name="frame.time_relative" showname="Time since reference or first frame: 0.003914000 seconds" size="0" pos="0" show="0.003914000"/>
    <field name="frame.number" showname="Frame Number: 3" size="0" pos="0" show="3"/>
    <field name="frame.len" showname="Frame Length: 74 bytes (592 bits)" size="0" pos="0" show="74"/>
    <field name="frame.cap_len" showname="Capture Length: 74 bytes (592 bits)" size="0" pos="0" show="74"/>
    <field name="frame.marked" showname="Frame is marked: False" size="0" pos="0" show="0"/>
    <field name="frame.ignored" showname="Frame is ignored: False" size="0" pos="0" show="0"/>
    <field name="frame.protocols" showname="Protocols in frame: eth:ethertype:ip:myicmp" size="0" pos="0" show="eth:ethertype:ip:myicmp"/>
  </proto>
  <proto name="eth" showname="Ethernet II, Src: Cisco_13:b9:a0 (00:0c:ce:13:b9:a0), Dst: LiteonTe_3f:98:91 (00:22:5f:3f:98:91)" size="14" pos="0">
    <field name="eth.dst" showname="Destination: LiteonTe_3f:98:91 (00:22:5f:3f:98:91)" size="6" pos="0" show="00:22:5f:3f:98:91" value="00225f3f9891">
      <field name="eth.dst_resolved" showname="Destination (resolved): LiteonTe_3f:98:91" size="6" pos="0" show="LiteonTe_3f:98:91" value="00225f3f9891"/>
      <field name="eth.addr" showname="Address: LiteonTe_3f:98:91 (00:22:5f:3f:98:91)" size="6" pos="0" show="00:22:5f:3f:98:91" value="00225f3f9891"/>
      <field name="eth.addr_resolved" showname="Address (resolved): LiteonTe_3f:98:91" size="6" pos="0" show="LiteonTe_3f:98:91" value="00225f3f9891"/>
      <field name="eth.lg" showname=".... ..0. .... .... .... .... = LG bit: Globally unique address (factory default)" size="3" pos="0" show="0" value="0" unmaskedvalue="00225f"/>
      <field name="eth.ig" showname=".... ...0 .... .... .... .... = IG bit: Individual address (unicast)" size="3" pos="0" show="0" value="0" unmaskedvalue="00225f"/>
    </field>
    <field name="eth.src" showname="Source: Cisco_13:b9:a0 (00:0c:ce:13:b9:a0)" size="6" pos="6" show="00:0c:ce:13:b9:a0" value="000cce13b9a0">
      <field name="eth.src_resolved" showname="Source (resolved): Cisco_13:b9:a0" size="6" pos="6" show="Cisco_13:b9:a0" value="000cce13b9a0"/>
      <field name="eth.addr" showname="Address: Cisco_13:b9:a0 (00:0c:ce:13:b9:a0)" size="6" pos="6" show="00:0c:ce:13:b9:a0" value="000cce13b9a0"/>
      <field name="eth.addr_resolved" showname="Address (resolved): Cisco_13:b9:a0" size="6" pos="6" show="Cisco_13:b9:a0" value="000cce13b9a0"/>
      <field name="eth.lg" showname=".... ..0. .... .... .... .... = LG bit: Globally unique address (factory default)" size="3" pos="6" show="0" value="0" unmaskedvalue="000cce"/>
      <field name="eth.ig" showname=".... ...0 .... .... .... .... = IG bit: Individual address (unicast)" size="3" pos="6" show="0" value="0" unmaskedvalue="000cce"/>
    </field>
    <field name="eth.type" showname="Type: IPv4 (0x0800)" size="2" pos="12" show="0x00000800" value="0800"/>
  </proto>
  <proto name="ip" showname="Internet Protocol Version 4, Src: 192.168.0.1, Dst: 192.168.0.89" size="20" pos="14">
    <field name="ip.version" showname="0100 .... = Version: 4" size="1" pos="14" show="4" value="4" unmaskedvalue="45"/>
    <field name="ip.hdr_len" showname=".... 0101 = Header Length: 20 bytes (5)" size="1" pos="14" show="20" value="45"/>
    <field name="ip.dsfield" showname="Differentiated Services Field: 0x00 (DSCP: CS0, ECN: Not-ECT)" size="1" pos="15" show="0x00000000" value="00">
      <field name="ip.dsfield.dscp" showname="0000 00.. = Differentiated Services Codepoint: Default (0)" size="1" pos="15" show="0" value="0" unmaskedvalue="00"/>
      <field name="ip.dsfield.ecn" showname=".... ..00 = Explicit Congestion Notification: Not ECN-Capable Transport (0)" size="1" pos="15" show="0" value="0" unmaskedvalue="00"/>
    </field>
    <field name="ip.len" showname="Total Length: 60" size="2" pos="16" show="60" value="003c"/>
    <field name="ip.id" showname="Identification: 0xc63e (50750)" size="2" pos="18" show="0x0000c63e" value="c63e"/>
    <field name="ip.flags" showname="Flags: 0x00" size="1" pos="20" show="0x00000000" value="00">
      <field name="ip.flags.rb" showname="0... .... = Reserved bit: Not set" size="1" pos="20" show="0" value="00"/>
      <field name="ip.flags.df" showname=".0.. .... = Don&#x27;t fragment: Not set" size="1" pos="20" show="0" value="00"/>
      <field name="ip.flags.mf" showname="..0. .... = More fragments: Not set" size="1" pos="20" show="0" value="00"/>
    </field>
    <field name="ip.frag_offset" showname="Fragment offset: 0" size="2" pos="20" show="0" value="0000"/>
    <field name="ip.ttl" showname="Time to live: 255" size="1" pos="22" show="255" value="ff"/>
    <field name="ip.proto" showname="Protocol: ICMP (1)" size="1" pos="23" show="1" value="01"/>
    <field name="ip.checksum" showname="Header checksum: 0x73d7 [validation disabled]" size="2" pos="24" show="0x000073d7" value="73d7"/>
    <field name="ip.checksum.status" showname="Header checksum status: Unverified" size="0" pos="24" show="2"/>
    <field name="ip.src" showname="Source: 192.168.0.1" size="4" pos="26" show="192.168.0.1" value="c0a80001"/>
    <field name="ip.addr" showname="Source or Destination Address: 192.168.0.1" size="4" pos="26" show="192.168.0.1" value="c0a80001"/>
    <field name="ip.src_host" showname="Source Host: 192.168.0.1" size="4" pos="26" show="192.168.0.1" value="c0a80001"/>
    <field name="ip.host" showname="Source or Destination Host: 192.168.0.1" size="4" pos="26" show="192.168.0.1" value="c0a80001"/>
    <field name="ip.dst" showname="Destination: 192.168.0.89" size="4" pos="30" show="192.168.0.89" value="c0a80059"/>
    <field name="ip.addr" showname="Source or Destination Address: 192.168.0.89" size="4" pos="30" show="192.168.0.89" value="c0a80059"/>
    <field name="ip.dst_host" showname="Destination Host: 192.168.0.89" size="4" pos="30" show="192.168.0.89" value="c0a80059"/>
    <field name="ip.host" showname="Source or Destination Host: 192.168.0.89" size="4" pos="30" show="192.168.0.89" value="c0a80059"/>
    <field name="" show="Source GeoIP: Unknown" size="4" pos="26" value="c0a80001"/>
    <field name="" show="Destination GeoIP: Unknown" size="4" pos="30" value="c0a80059"/>
  </proto>
  <proto name="fake-field-wrapper">
  <field name="_ws.lua.fake" showname="Wireshark Lua fake item" size="0" pos="34" show="" value=""/>
</proto>
<proto name="myicmp" showname="MyICMP Protocol" size="40" pos="34">
  <proto name="fake-field-wrapper">
  <field name="mydns.type" showname=".... 0000 = Type: Echo Reply (0)" size="1" pos="34" show="0" value="0" unmaskedvalue="00"/>
</proto>
<field name="mydns.code" showname="Code: 0" size="1" pos="35" show="0" value="00"/>
<field name="mydns.checksum" showname="Checksum: 19036" size="2" pos="36" show="19036" value="4a5c"/>
</proto>
</packet>


<packet>
  <proto name="geninfo" pos="0" showname="General information" size="74">
    <field name="num" pos="0" show="4" showname="Number" value="4" size="74"/>
    <field name="len" pos="0" show="74" showname="Frame Length" value="4a" size="74"/>
    <field name="caplen" pos="0" show="74" showname="Captured Length" value="4a" size="74"/>
    <field name="timestamp" pos="0" show="Jun 26, 2011 21:21:28.024534000 Mountain Daylight Time" showname="Captured Time" value="1309144888.024534000" size="74"/>
  </proto>
  <proto name="frame" showname="Frame 4: 74 bytes on wire (592 bits), 74 bytes captured (592 bits)" size="74" pos="0">
    <field name="frame.encap_type" showname="Encapsulation type: Ethernet (1)" size="0" pos="0" show="1"/>
    <field name="frame.time" showname="Arrival Time: Jun 26, 2011 21:21:28.024534000 Mountain Daylight Time" size="0" pos="0" show="Jun 26, 2011 21:21:28.024534000 Mountain Daylight Time"/>
    <field name="frame.offset_shift" showname="Time shift for this packet: 0.000000000 seconds" size="0" pos="0" show="0.000000000"/>
    <field name="frame.time_epoch" showname="Epoch Time: 1309144888.024534000 seconds" size="0" pos="0" show="1309144888.024534000"/>
    <field name="frame.time_delta" showname="Time delta from previous captured frame: 0.996357000 seconds" size="0" pos="0" show="0.996357000"/>
    <field name="frame.time_delta_displayed" showname="Time delta from previous displayed frame: 0.996357000 seconds" size="0" pos="0" show="0.996357000"/>
    <field name="frame.time_relative" showname="Time since reference or first frame: 1.000271000 seconds" size="0" pos="0" show="1.000271000"/>
    <field name="frame.number" showname="Frame Number: 4" size="0" pos="0" show="4"/>
    <field name="frame.len" showname="Frame Length: 74 bytes (592 bits)" size="0" pos="0" show="74"/>
    <field name="frame.cap_len" showname="Capture Length: 74 bytes (592 bits)" size="0" pos="0" show="74"/>
    <field name="frame.marked" showname="Frame is marked: False" size="0" pos="0" show="0"/>
    <field name="frame.ignored" showname="Frame is ignored: False" size="0" pos="0" show="0"/>
    <field name="frame.protocols" showname="Protocols in frame: eth:ethertype:ip:myicmp" size="0" pos="0" show="eth:ethertype:ip:myicmp"/>
  </proto>
  <proto name="eth" showname="Ethernet II, Src: LiteonTe_3f:98:91 (00:22:5f:3f:98:91), Dst: Cisco_13:b9:a0 (00:0c:ce:13:b9:a0)" size="14" pos="0">
    <field name="eth.dst" showname="Destination: Cisco_13:b9:a0 (00:0c:ce:13:b9:a0)" size="6" pos="0" show="00:0c:ce:13:b9:a0" value="000cce13b9a0">
      <field name="eth.dst_resolved" showname="Destination (resolved): Cisco_13:b9:a0" size="6" pos="0" show="Cisco_13:b9:a0" value="000cce13b9a0"/>
      <field name="eth.addr" showname="Address: Cisco_13:b9:a0 (00:0c:ce:13:b9:a0)" size="6" pos="0" show="00:0c:ce:13:b9:a0" value="000cce13b9a0"/>
      <field name="eth.addr_resolved" showname="Address (resolved): Cisco_13:b9:a0" size="6" pos="0" show="Cisco_13:b9:a0" value="000cce13b9a0"/>
      <field name="eth.lg" showname=".... ..0. .... .... .... .... = LG bit: Globally unique address (factory default)" size="3" pos="0" show="0" value="0" unmaskedvalue="000cce"/>
      <field name="eth.ig" showname=".... ...0 .... .... .... .... = IG bit: Individual address (unicast)" size="3" pos="0" show="0" value="0" unmaskedvalue="000cce"/>
    </field>
    <field name="eth.src" showname="Source: LiteonTe_3f:98:91 (00:22:5f:3f:98:91)" size="6" pos="6" show="00:22:5f:3f:98:91" value="00225f3f9891">
      <field name="eth.src_resolved" showname="Source (resolved): LiteonTe_3f:98:91" size="6" pos="6" show="LiteonTe_3f:98:91" value="00225f3f9891"/>
      <field name="eth.addr" showname="Address: LiteonTe_3f:98:91 (00:22:5f:3f:98:91)" size="6" pos="6" show="00:22:5f:3f:98:91" value="00225f3f9891"/>
      <field name="eth.addr_resolved" showname="Address (resolved): LiteonTe_3f:98:91" size="6" pos="6" show="LiteonTe_3f:98:91" value="00225f3f9891"/>
      <field name="eth.lg" showname=".... ..0. .... .... .... .... = LG bit: Globally unique address (factory default)" size="3" pos="6" show="0" value="0" unmaskedvalue="00225f"/>
      <field name="eth.ig" showname=".... ...0 .... .... .... .... = IG bit: Individual address (unicast)" size="3" pos="6" show="0" value="0" unmaskedvalue="00225f"/>
    </field>
    <field name="eth.type" showname="Type: IPv4 (0x0800)" size="2" pos="12" show="0x00000800" value="0800"/>
  </proto>
  <proto name="ip" showname="Internet Protocol Version 4, Src: 192.168.0.89, Dst: 192.168.0.1" size="20" pos="14">
    <field name="ip.version" showname="0100 .... = Version: 4" size="1" pos="14" show="4" value="4" unmaskedvalue="45"/>
    <field name="ip.hdr_len" showname=".... 0101 = Header Length: 20 bytes (5)" size="1" pos="14" show="20" value="45"/>
    <field name="ip.dsfield" showname="Differentiated Services Field: 0x00 (DSCP: CS0, ECN: Not-ECT)" size="1" pos="15" show="0x00000000" value="00">
      <field name="ip.dsfield.dscp" showname="0000 00.. = Differentiated Services Codepoint: Default (0)" size="1" pos="15" show="0" value="0" unmaskedvalue="00"/>
      <field name="ip.dsfield.ecn" showname=".... ..00 = Explicit Congestion Notification: Not ECN-Capable Transport (0)" size="1" pos="15" show="0" value="0" unmaskedvalue="00"/>
    </field>
    <field name="ip.len" showname="Total Length: 60" size="2" pos="16" show="60" value="003c"/>
    <field name="ip.id" showname="Identification: 0xc643 (50755)" size="2" pos="18" show="0x0000c643" value="c643"/>
    <field name="ip.flags" showname="Flags: 0x00" size="1" pos="20" show="0x00000000" value="00">
      <field name="ip.flags.rb" showname="0... .... = Reserved bit: Not set" size="1" pos="20" show="0" value="00"/>
      <field name="ip.flags.df" showname=".0.. .... = Don&#x27;t fragment: Not set" size="1" pos="20" show="0" value="00"/>
      <field name="ip.flags.mf" showname="..0. .... = More fragments: Not set" size="1" pos="20" show="0" value="00"/>
    </field>
    <field name="ip.frag_offset" showname="Fragment offset: 0" size="2" pos="20" show="0" value="0000"/>
    <field name="ip.ttl" showname="Time to live: 128" size="1" pos="22" show="128" value="80"/>
    <field name="ip.proto" showname="Protocol: ICMP (1)" size="1" pos="23" show="1" value="01"/>
    <field name="ip.checksum" showname="Header checksum: 0xf2d2 [validation disabled]" size="2" pos="24" show="0x0000f2d2" value="f2d2"/>
    <field name="ip.checksum.status" showname="Header checksum status: Unverified" size="0" pos="24" show="2"/>
    <field name="ip.src" showname="Source: 192.168.0.89" size="4" pos="26" show="192.168.0.89" value="c0a80059"/>
    <field name="ip.addr" showname="Source or Destination Address: 192.168.0.89" size="4" pos="26" show="192.168.0.89" value="c0a80059"/>
    <field name="ip.src_host" showname="Source Host: 192.168.0.89" size="4" pos="26" show="192.168.0.89" value="c0a80059"/>
    <field name="ip.host" showname="Source or Destination Host: 192.168.0.89" size="4" pos="26" show="192.168.0.89" value="c0a80059"/>
    <field name="ip.dst" showname="Destination: 192.168.0.1" size="4" pos="30" show="192.168.0.1" value="c0a80001"/>
    <field name="ip.addr" showname="Source or Destination Address: 192.168.0.1" size="4" pos="30" show="192.168.0.1" value="c0a80001"/>
    <field name="ip.dst_host" showname="Destination Host: 192.168.0.1" size="4" pos="30" show="192.168.0.1" value="c0a80001"/>
    <field name="ip.host" showname="Source or Destination Host: 192.168.0.1" size="4" pos="30" show="192.168.0.1" value="c0a80001"/>
    <field name="" show="Source GeoIP: Unknown" size="4" pos="26" value="c0a80059"/>
    <field name="" show="Destination GeoIP: Unknown" size="4" pos="30" value="c0a80001"/>
  </proto>
  <proto name="fake-field-wrapper">
  <field name="_ws.lua.fake" showname="Wireshark Lua fake item" size="0" pos="34" show="" value=""/>
</proto>
<proto name="myicmp" showname="MyICMP Protocol" size="40" pos="34">
  <proto name="fake-field-wrapper">
  <field name="mydns.type" showname=".... 1000 = Type: Echo Request (8)" size="1" pos="34" show="8" value="8" unmaskedvalue="08"/>
</proto>
<field name="mydns.code" showname="Code: 0" size="1" pos="35" show="0" value="00"/>
<field name="mydns.checksum" showname="Checksum: 16732" size="2" pos="36" show="16732" value="415c"/>
</proto>
</packet>


<packet>
  <proto name="geninfo" pos="0" showname="General information" size="74">
    <field name="num" pos="0" show="5" showname="Number" value="5" size="74"/>
    <field name="len" pos="0" show="74" showname="Frame Length" value="4a" size="74"/>
    <field name="caplen" pos="0" show="74" showname="Captured Length" value="4a" size="74"/>
    <field name="timestamp" pos="0" show="Jun 26, 2011 21:21:28.024850000 Mountain Daylight Time" showname="Captured Time" value="1309144888.024850000" size="74"/>
  </proto>
  <proto name="frame" showname="Frame 5: 74 bytes on wire (592 bits), 74 bytes captured (592 bits)" size="74" pos="0">
    <field name="frame.encap_type" showname="Encapsulation type: Ethernet (1)" size="0" pos="0" show="1"/>
    <field name="frame.time" showname="Arrival Time: Jun 26, 2011 21:21:28.024850000 Mountain Daylight Time" size="0" pos="0" show="Jun 26, 2011 21:21:28.024850000 Mountain Daylight Time"/>
    <field name="frame.offset_shift" showname="Time shift for this packet: 0.000000000 seconds" size="0" pos="0" show="0.000000000"/>
    <field name="frame.time_epoch" showname="Epoch Time: 1309144888.024850000 seconds" size="0" pos="0" show="1309144888.024850000"/>
    <field name="frame.time_delta" showname="Time delta from previous captured frame: 0.000316000 seconds" size="0" pos="0" show="0.000316000"/>
    <field name="frame.time_delta_displayed" showname="Time delta from previous displayed frame: 0.000316000 seconds" size="0" pos="0" show="0.000316000"/>
    <field name="frame.time_relative" showname="Time since reference or first frame: 1.000587000 seconds" size="0" pos="0" show="1.000587000"/>
    <field name="frame.number" showname="Frame Number: 5" size="0" pos="0" show="5"/>
    <field name="frame.len" showname="Frame Length: 74 bytes (592 bits)" size="0" pos="0" show="74"/>
    <field name="frame.cap_len" showname="Capture Length: 74 bytes (592 bits)" size="0" pos="0" show="74"/>
    <field name="frame.marked" showname="Frame is marked: False" size="0" pos="0" show="0"/>
    <field name="frame.ignored" showname="Frame is ignored: False" size="0" pos="0" show="0"/>
    <field name="frame.protocols" showname="Protocols in frame: eth:ethertype:ip:myicmp" size="0" pos="0" show="eth:ethertype:ip:myicmp"/>
  </proto>
  <proto name="eth" showname="Ethernet II, Src: LiteonTe_3f:98:91 (00:22:5f:3f:98:91), Dst: Cisco_13:b9:a0 (00:0c:ce:13:b9:a0)" size="14" pos="0">
    <field name="eth.dst" showname="Destination: Cisco_13:b9:a0 (00:0c:ce:13:b9:a0)" size="6" pos="0" show="00:0c:ce:13:b9:a0" value="000cce13b9a0">
      <field name="eth.dst_resolved" showname="Destination (resolved): Cisco_13:b9:a0" size="6" pos="0" show="Cisco_13:b9:a0" value="000cce13b9a0"/>
      <field name="eth.addr" showname="Address: Cisco_13:b9:a0 (00:0c:ce:13:b9:a0)" size="6" pos="0" show="00:0c:ce:13:b9:a0" value="000cce13b9a0"/>
      <field name="eth.addr_resolved" showname="Address (resolved): Cisco_13:b9:a0" size="6" pos="0" show="Cisco_13:b9:a0" value="000cce13b9a0"/>
      <field name="eth.lg" showname=".... ..0. .... .... .... .... = LG bit: Globally unique address (factory default)" size="3" pos="0" show="0" value="0" unmaskedvalue="000cce"/>
      <field name="eth.ig" showname=".... ...0 .... .... .... .... = IG bit: Individual address (unicast)" size="3" pos="0" show="0" value="0" unmaskedvalue="000cce"/>
    </field>
    <field name="eth.src" showname="Source: LiteonTe_3f:98:91 (00:22:5f:3f:98:91)" size="6" pos="6" show="00:22:5f:3f:98:91" value="00225f3f9891">
      <field name="eth.src_resolved" showname="Source (resolved): LiteonTe_3f:98:91" size="6" pos="6" show="LiteonTe_3f:98:91" value="00225f3f9891"/>
      <field name="eth.addr" showname="Address: LiteonTe_3f:98:91 (00:22:5f:3f:98:91)" size="6" pos="6" show="00:22:5f:3f:98:91" value="00225f3f9891"/>
      <field name="eth.addr_resolved" showname="Address (resolved): LiteonTe_3f:98:91" size="6" pos="6" show="LiteonTe_3f:98:91" value="00225f3f9891"/>
      <field name="eth.lg" showname=".... ..0. .... .... .... .... = LG bit: Globally unique address (factory default)" size="3" pos="6" show="0" value="0" unmaskedvalue="00225f"/>
      <field name="eth.ig" showname=".... ...0 .... .... .... .... = IG bit: Individual address (unicast)" size="3" pos="6" show="0" value="0" unmaskedvalue="00225f"/>
    </field>
    <field name="eth.type" showname="Type: IPv4 (0x0800)" size="2" pos="12" show="0x00000800" value="0800"/>
  </proto>
  <proto name="ip" showname="Internet Protocol Version 4, Src: 192.168.0.89, Dst: 192.168.0.1" size="20" pos="14">
    <field name="ip.version" showname="0100 .... = Version: 4" size="1" pos="14" show="4" value="4" unmaskedvalue="45"/>
    <field name="ip.hdr_len" showname=".... 0101 = Header Length: 20 bytes (5)" size="1" pos="14" show="20" value="45"/>
    <field name="ip.dsfield" showname="Differentiated Services Field: 0x00 (DSCP: CS0, ECN: Not-ECT)" size="1" pos="15" show="0x00000000" value="00">
      <field name="ip.dsfield.dscp" showname="0000 00.. = Differentiated Services Codepoint: Default (0)" size="1" pos="15" show="0" value="0" unmaskedvalue="00"/>
      <field name="ip.dsfield.ecn" showname=".... ..00 = Explicit Congestion Notification: Not ECN-Capable Transport (0)" size="1" pos="15" show="0" value="0" unmaskedvalue="00"/>
    </field>
    <field name="ip.len" showname="Total Length: 60" size="2" pos="16" show="60" value="003c"/>
    <field name="ip.id" showname="Identification: 0xc643 (50755)" size="2" pos="18" show="0x0000c643" value="c643"/>
    <field name="ip.flags" showname="Flags: 0x00" size="1" pos="20" show="0x00000000" value="00">
      <field name="ip.flags.rb" showname="0... .... = Reserved bit: Not set" size="1" pos="20" show="0" value="00"/>
      <field name="ip.flags.df" showname=".0.. .... = Don&#x27;t fragment: Not set" size="1" pos="20" show="0" value="00"/>
      <field name="ip.flags.mf" showname="..0. .... = More fragments: Not set" size="1" pos="20" show="0" value="00"/>
    </field>
    <field name="ip.frag_offset" showname="Fragment offset: 0" size="2" pos="20" show="0" value="0000"/>
    <field name="ip.ttl" showname="Time to live: 128" size="1" pos="22" show="128" value="80"/>
    <field name="ip.proto" showname="Protocol: ICMP (1)" size="1" pos="23" show="1" value="01"/>
    <field name="ip.checksum" showname="Header checksum: 0xf2d2 [validation disabled]" size="2" pos="24" show="0x0000f2d2" value="f2d2"/>
    <field name="ip.checksum.status" showname="Header checksum status: Unverified" size="0" pos="24" show="2"/>
    <field name="ip.src" showname="Source: 192.168.0.89" size="4" pos="26" show="192.168.0.89" value="c0a80059"/>
    <field name="ip.addr" showname="Source or Destination Address: 192.168.0.89" size="4" pos="26" show="192.168.0.89" value="c0a80059"/>
    <field name="ip.src_host" showname="Source Host: 192.168.0.89" size="4" pos="26" show="192.168.0.89" value="c0a80059"/>
    <field name="ip.host" showname="Source or Destination Host: 192.168.0.89" size="4" pos="26" show="192.168.0.89" value="c0a80059"/>
    <field name="ip.dst" showname="Destination: 192.168.0.1" size="4" pos="30" show="192.168.0.1" value="c0a80001"/>
    <field name="ip.addr" showname="Source or Destination Address: 192.168.0.1" size="4" pos="30" show="192.168.0.1" value="c0a80001"/>
    <field name="ip.dst_host" showname="Destination Host: 192.168.0.1" size="4" pos="30" show="192.168.0.1" value="c0a80001"/>
    <field name="ip.host" showname="Source or Destination Host: 192.168.0.1" size="4" pos="30" show="192.168.0.1" value="c0a80001"/>
    <field name="" show="Source GeoIP: Unknown" size="4" pos="26" value="c0a80059"/>
    <field name="" show="Destination GeoIP: Unknown" size="4" pos="30" value="c0a80001"/>
  </proto>
  <proto name="fake-field-wrapper">
  <field name="_ws.lua.fake" showname="Wireshark Lua fake item" size="0" pos="34" show="" value=""/>
</proto>
<proto name="myicmp" showname="MyICMP Protocol" size="40" pos="34">
  <proto name="fake-field-wrapper">
  <field name="mydns.type" showname=".... 1000 = Type: Echo Request (8)" size="1" pos="34" show="8" value="8" unmaskedvalue="08"/>
</proto>
<field name="mydns.code" showname="Code: 0" size="1" pos="35" show="0" value="00"/>
<field name="mydns.checksum" showname="Checksum: 16732" size="2" pos="36" show="16732" value="415c"/>
</proto>
</packet>


<packet>
  <proto name="geninfo" pos="0" showname="General information" size="74">
    <field name="num" pos="0" show="6" showname="Number" value="6" size="74"/>
    <field name="len" pos="0" show="74" showname="Frame Length" value="4a" size="74"/>
    <field name="caplen" pos="0" show="74" showname="Captured Length" value="4a" size="74"/>
    <field name="timestamp" pos="0" show="Jun 26, 2011 21:21:28.028895000 Mountain Daylight Time" showname="Captured Time" value="1309144888.028895000" size="74"/>
  </proto>
  <proto name="frame" showname="Frame 6: 74 bytes on wire (592 bits), 74 bytes captured (592 bits)" size="74" pos="0">
    <field name="frame.encap_type" showname="Encapsulation type: Ethernet (1)" size="0" pos="0" show="1"/>
    <field name="frame.time" showname="Arrival Time: Jun 26, 2011 21:21:28.028895000 Mountain Daylight Time" size="0" pos="0" show="Jun 26, 2011 21:21:28.028895000 Mountain Daylight Time"/>
    <field name="frame.offset_shift" showname="Time shift for this packet: 0.000000000 seconds" size="0" pos="0" show="0.000000000"/>
    <field name="frame.time_epoch" showname="Epoch Time: 1309144888.028895000 seconds" size="0" pos="0" show="1309144888.028895000"/>
    <field name="frame.time_delta" showname="Time delta from previous captured frame: 0.004045000 seconds" size="0" pos="0" show="0.004045000"/>
    <field name="frame.time_delta_displayed" showname="Time delta from previous displayed frame: 0.004045000 seconds" size="0" pos="0" show="0.004045000"/>
    <field name="frame.time_relative" showname="Time since reference or first frame: 1.004632000 seconds" size="0" pos="0" show="1.004632000"/>
    <field name="frame.number" showname="Frame Number: 6" size="0" pos="0" show="6"/>
    <field name="frame.len" showname="Frame Length: 74 bytes (592 bits)" size="0" pos="0" show="74"/>
    <field name="frame.cap_len" showname="Capture Length: 74 bytes (592 bits)" size="0" pos="0" show="74"/>
    <field name="frame.marked" showname="Frame is marked: False" size="0" pos="0" show="0"/>
    <field name="frame.ignored" showname="Frame is ignored: False" size="0" pos="0" show="0"/>
    <field name="frame.protocols" showname="Protocols in frame: eth:ethertype:ip:myicmp" size="0" pos="0" show="eth:ethertype:ip:myicmp"/>
  </proto>
  <proto name="eth" showname="Ethernet II, Src: Cisco_13:b9:a0 (00:0c:ce:13:b9:a0), Dst: LiteonTe_3f:98:91 (00:22:5f:3f:98:91)" size="14" pos="0">
    <field name="eth.dst" showname="Destination: LiteonTe_3f:98:91 (00:22:5f:3f:98:91)" size="6" pos="0" show="00:22:5f:3f:98:91" value="00225f3f9891">
      <field name="eth.dst_resolved" showname="Destination (resolved): LiteonTe_3f:98:91" size="6" pos="0" show="LiteonTe_3f:98:91" value="00225f3f9891"/>
      <field name="eth.addr" showname="Address: LiteonTe_3f:98:91 (00:22:5f:3f:98:91)" size="6" pos="0" show="00:22:5f:3f:98:91" value="00225f3f9891"/>
      <field name="eth.addr_resolved" showname="Address (resolved): LiteonTe_3f:98:91" size="6" pos="0" show="LiteonTe_3f:98:91" value="00225f3f9891"/>
      <field name="eth.lg" showname=".... ..0. .... .... .... .... = LG bit: Globally unique address (factory default)" size="3" pos="0" show="0" value="0" unmaskedvalue="00225f"/>
      <field name="eth.ig" showname=".... ...0 .... .... .... .... = IG bit: Individual address (unicast)" size="3" pos="0" show="0" value="0" unmaskedvalue="00225f"/>
    </field>
    <field name="eth.src" showname="Source: Cisco_13:b9:a0 (00:0c:ce:13:b9:a0)" size="6" pos="6" show="00:0c:ce:13:b9:a0" value="000cce13b9a0">
      <field name="eth.src_resolved" showname="Source (resolved): Cisco_13:b9:a0" size="6" pos="6" show="Cisco_13:b9:a0" value="000cce13b9a0"/>
      <field name="eth.addr" showname="Address: Cisco_13:b9:a0 (00:0c:ce:13:b9:a0)" size="6" pos="6" show="00:0c:ce:13:b9:a0" value="000cce13b9a0"/>
      <field name="eth.addr_resolved" showname="Address (resolved): Cisco_13:b9:a0" size="6" pos="6" show="Cisco_13:b9:a0" value="000cce13b9a0"/>
      <field name="eth.lg" showname=".... ..0. .... .... .... .... = LG bit: Globally unique address (factory default)" size="3" pos="6" show="0" value="0" unmaskedvalue="000cce"/>
      <field name="eth.ig" showname=".... ...0 .... .... .... .... = IG bit: Individual address (unicast)" size="3" pos="6" show="0" value="0" unmaskedvalue="000cce"/>
    </field>
    <field name="eth.type" showname="Type: IPv4 (0x0800)" size="2" pos="12" show="0x00000800" value="0800"/>
  </proto>
  <proto name="ip" showname="Internet Protocol Version 4, Src: 192.168.0.1, Dst: 192.168.0.89" size="20" pos="14">
    <field name="ip.version" showname="0100 .... = Version: 4" size="1" pos="14" show="4" value="4" unmaskedvalue="45"/>
    <field name="ip.hdr_len" showname=".... 0101 = Header Length: 20 bytes (5)" size="1" pos="14" show="20" value="45"/>
    <field name="ip.dsfield" showname="Differentiated Services Field: 0x00 (DSCP: CS0, ECN: Not-ECT)" size="1" pos="15" show="0x00000000" value="00">
      <field name="ip.dsfield.dscp" showname="0000 00.. = Differentiated Services Codepoint: Default (0)" size="1" pos="15" show="0" value="0" unmaskedvalue="00"/>
      <field name="ip.dsfield.ecn" showname=".... ..00 = Explicit Congestion Notification: Not ECN-Capable Transport (0)" size="1" pos="15" show="0" value="0" unmaskedvalue="00"/>
    </field>
    <field name="ip.len" showname="Total Length: 60" size="2" pos="16" show="60" value="003c"/>
    <field name="ip.id" showname="Identification: 0xc643 (50755)" size="2" pos="18" show="0x0000c643" value="c643"/>
    <field name="ip.flags" showname="Flags: 0x00" size="1" pos="20" show="0x00000000" value="00">
      <field name="ip.flags.rb" showname="0... .... = Reserved bit: Not set" size="1" pos="20" show="0" value="00"/>
      <field name="ip.flags.df" showname=".0.. .... = Don&#x27;t fragment: Not set" size="1" pos="20" show="0" value="00"/>
      <field name="ip.flags.mf" showname="..0. .... = More fragments: Not set" size="1" pos="20" show="0" value="00"/>
    </field>
    <field name="ip.frag_offset" showname="Fragment offset: 0" size="2" pos="20" show="0" value="0000"/>
    <field name="ip.ttl" showname="Time to live: 255" size="1" pos="22" show="255" value="ff"/>
    <field name="ip.proto" showname="Protocol: ICMP (1)" size="1" pos="23" show="1" value="01"/>
    <field name="ip.checksum" showname="Header checksum: 0x73d2 [validation disabled]" size="2" pos="24" show="0x000073d2" value="73d2"/>
    <field name="ip.checksum.status" showname="Header checksum status: Unverified" size="0" pos="24" show="2"/>
    <field name="ip.src" showname="Source: 192.168.0.1" size="4" pos="26" show="192.168.0.1" value="c0a80001"/>
    <field name="ip.addr" showname="Source or Destination Address: 192.168.0.1" size="4" pos="26" show="192.168.0.1" value="c0a80001"/>
    <field name="ip.src_host" showname="Source Host: 192.168.0.1" size="4" pos="26" show="192.168.0.1" value="c0a80001"/>
    <field name="ip.host" showname="Source or Destination Host: 192.168.0.1" size="4" pos="26" show="192.168.0.1" value="c0a80001"/>
    <field name="ip.dst" showname="Destination: 192.168.0.89" size="4" pos="30" show="192.168.0.89" value="c0a80059"/>
    <field name="ip.addr" showname="Source or Destination Address: 192.168.0.89" size="4" pos="30" show="192.168.0.89" value="c0a80059"/>
    <field name="ip.dst_host" showname="Destination Host: 192.168.0.89" size="4" pos="30" show="192.168.0.89" value="c0a80059"/>
    <field name="ip.host" showname="Source or Destination Host: 192.168.0.89" size="4" pos="30" show="192.168.0.89" value="c0a80059"/>
    <field name="" show="Source GeoIP: Unknown" size="4" pos="26" value="c0a80001"/>
    <field name="" show="Destination GeoIP: Unknown" size="4" pos="30" value="c0a80059"/>
  </proto>
  <proto name="fake-field-wrapper">
  <field name="_ws.lua.fake" showname="Wireshark Lua fake item" size="0" pos="34" show="" value=""/>
</proto>
<proto name="myicmp" showname="MyICMP Protocol" size="40" pos="34">
  <proto name="fake-field-wrapper">
  <field name="mydns.type" showname=".... 0000 = Type: Echo Reply (0)" size="1" pos="34" show="0" value="0" unmaskedvalue="00"/>
</proto>
<field name="mydns.code" showname="Code: 0" size="1" pos="35" show="0" value="00"/>
<field name="mydns.checksum" showname="Checksum: 18780" size="2" pos="36" show="18780" value="495c"/>
</proto>
</packet>


<packet>
  <proto name="geninfo" pos="0" showname="General information" size="74">
    <field name="num" pos="0" show="7" showname="Number" value="7" size="74"/>
    <field name="len" pos="0" show="74" showname="Frame Length" value="4a" size="74"/>
    <field name="caplen" pos="0" show="74" showname="Captured Length" value="4a" size="74"/>
    <field name="timestamp" pos="0" show="Jun 26, 2011 21:21:29.025473000 Mountain Daylight Time" showname="Captured Time" value="1309144889.025473000" size="74"/>
  </proto>
  <proto name="frame" showname="Frame 7: 74 bytes on wire (592 bits), 74 bytes captured (592 bits)" size="74" pos="0">
    <field name="frame.encap_type" showname="Encapsulation type: Ethernet (1)" size="0" pos="0" show="1"/>
    <field name="frame.time" showname="Arrival Time: Jun 26, 2011 21:21:29.025473000 Mountain Daylight Time" size="0" pos="0" show="Jun 26, 2011 21:21:29.025473000 Mountain Daylight Time"/>
    <field name="frame.offset_shift" showname="Time shift for this packet: 0.000000000 seconds" size="0" pos="0" show="0.000000000"/>
    <field name="frame.time_epoch" showname="Epoch Time: 1309144889.025473000 seconds" size="0" pos="0" show="1309144889.025473000"/>
    <field name="frame.time_delta" showname="Time delta from previous captured frame: 0.996578000 seconds" size="0" pos="0" show="0.996578000"/>
    <field name="frame.time_delta_displayed" showname="Time delta from previous displayed frame: 0.996578000 seconds" size="0" pos="0" show="0.996578000"/>
    <field name="frame.time_relative" showname="Time since reference or first frame: 2.001210000 seconds" size="0" pos="0" show="2.001210000"/>
    <field name="frame.number" showname="Frame Number: 7" size="0" pos="0" show="7"/>
    <field name="frame.len" showname="Frame Length: 74 bytes (592 bits)" size="0" pos="0" show="74"/>
    <field name="frame.cap_len" showname="Capture Length: 74 bytes (592 bits)" size="0" pos="0" show="74"/>
    <field name="frame.marked" showname="Frame is marked: False" size="0" pos="0" show="0"/>
    <field name="frame.ignored" showname="Frame is ignored: False" size="0" pos="0" show="0"/>
    <field name="frame.protocols" showname="Protocols in frame: eth:ethertype:ip:myicmp" size="0" pos="0" show="eth:ethertype:ip:myicmp"/>
  </proto>
  <proto name="eth" showname="Ethernet II, Src: LiteonTe_3f:98:91 (00:22:5f:3f:98:91), Dst: Cisco_13:b9:a0 (00:0c:ce:13:b9:a0)" size="14" pos="0">
    <field name="eth.dst" showname="Destination: Cisco_13:b9:a0 (00:0c:ce:13:b9:a0)" size="6" pos="0" show="00:0c:ce:13:b9:a0" value="000cce13b9a0">
      <field name="eth.dst_resolved" showname="Destination (resolved): Cisco_13:b9:a0" size="6" pos="0" show="Cisco_13:b9:a0" value="000cce13b9a0"/>
      <field name="eth.addr" showname="Address: Cisco_13:b9:a0 (00:0c:ce:13:b9:a0)" size="6" pos="0" show="00:0c:ce:13:b9:a0" value="000cce13b9a0"/>
      <field name="eth.addr_resolved" showname="Address (resolved): Cisco_13:b9:a0" size="6" pos="0" show="Cisco_13:b9:a0" value="000cce13b9a0"/>
      <field name="eth.lg" showname=".... ..0. .... .... .... .... = LG bit: Globally unique address (factory default)" size="3" pos="0" show="0" value="0" unmaskedvalue="000cce"/>
      <field name="eth.ig" showname=".... ...0 .... .... .... .... = IG bit: Individual address (unicast)" size="3" pos="0" show="0" value="0" unmaskedvalue="000cce"/>
    </field>
    <field name="eth.src" showname="Source: LiteonTe_3f:98:91 (00:22:5f:3f:98:91)" size="6" pos="6" show="00:22:5f:3f:98:91" value="00225f3f9891">
      <field name="eth.src_resolved" showname="Source (resolved): LiteonTe_3f:98:91" size="6" pos="6" show="LiteonTe_3f:98:91" value="00225f3f9891"/>
      <field name="eth.addr" showname="Address: LiteonTe_3f:98:91 (00:22:5f:3f:98:91)" size="6" pos="6" show="00:22:5f:3f:98:91" value="00225f3f9891"/>
      <field name="eth.addr_resolved" showname="Address (resolved): LiteonTe_3f:98:91" size="6" pos="6" show="LiteonTe_3f:98:91" value="00225f3f9891"/>
      <field name="eth.lg" showname=".... ..0. .... .... .... .... = LG bit: Globally unique address (factory default)" size="3" pos="6" show="0" value="0" unmaskedvalue="00225f"/>
      <field name="eth.ig" showname=".... ...0 .... .... .... .... = IG bit: Individual address (unicast)" size="3" pos="6" show="0" value="0" unmaskedvalue="00225f"/>
    </field>
    <field name="eth.type" showname="Type: IPv4 (0x0800)" size="2" pos="12" show="0x00000800" value="0800"/>
  </proto>
  <proto name="ip" showname="Internet Protocol Version 4, Src: 192.168.0.89, Dst: 192.168.0.1" size="20" pos="14">
    <field name="ip.version" showname="0100 .... = Version: 4" size="1" pos="14" show="4" value="4" unmaskedvalue="45"/>
    <field name="ip.hdr_len" showname=".... 0101 = Header Length: 20 bytes (5)" size="1" pos="14" show="20" value="45"/>
    <field name="ip.dsfield" showname="Differentiated Services Field: 0x00 (DSCP: CS0, ECN: Not-ECT)" size="1" pos="15" show="0x00000000" value="00">
      <field name="ip.dsfield.dscp" showname="0000 00.. = Differentiated Services Codepoint: Default (0)" size="1" pos="15" show="0" value="0" unmaskedvalue="00"/>
      <field name="ip.dsfield.ecn" showname=".... ..00 = Explicit Congestion Notification: Not ECN-Capable Transport (0)" size="1" pos="15" show="0" value="0" unmaskedvalue="00"/>
    </field>
    <field name="ip.len" showname="Total Length: 60" size="2" pos="16" show="60" value="003c"/>
    <field name="ip.id" showname="Identification: 0xc644 (50756)" size="2" pos="18" show="0x0000c644" value="c644"/>
    <field name="ip.flags" showname="Flags: 0x00" size="1" pos="20" show="0x00000000" value="00">
      <field name="ip.flags.rb" showname="0... .... = Reserved bit: Not set" size="1" pos="20" show="0" value="00"/>
      <field name="ip.flags.df" showname=".0.. .... = Don&#x27;t fragment: Not set" size="1" pos="20" show="0" value="00"/>
      <field name="ip.flags.mf" showname="..0. .... = More fragments: Not set" size="1" pos="20" show="0" value="00"/>
    </field>
    <field name="ip.frag_offset" showname="Fragment offset: 0" size="2" pos="20" show="0" value="0000"/>
    <field name="ip.ttl" showname="Time to live: 128" size="1" pos="22" show="128" value="80"/>
    <field name="ip.proto" showname="Protocol: ICMP (1)" size="1" pos="23" show="1" value="01"/>
    <field name="ip.checksum" showname="Header checksum: 0xf2d1 [validation disabled]" size="2" pos="24" show="0x0000f2d1" value="f2d1"/>
    <field name="ip.checksum.status" showname="Header checksum status: Unverified" size="0" pos="24" show="2"/>
    <field name="ip.src" showname="Source: 192.168.0.89" size="4" pos="26" show="192.168.0.89" value="c0a80059"/>
    <field name="ip.addr" showname="Source or Destination Address: 192.168.0.89" size="4" pos="26" show="192.168.0.89" value="c0a80059"/>
    <field name="ip.src_host" showname="Source Host: 192.168.0.89" size="4" pos="26" show="192.168.0.89" value="c0a80059"/>
    <field name="ip.host" showname="Source or Destination Host: 192.168.0.89" size="4" pos="26" show="192.168.0.89" value="c0a80059"/>
    <field name="ip.dst" showname="Destination: 192.168.0.1" size="4" pos="30" show="192.168.0.1" value="c0a80001"/>
    <field name="ip.addr" showname="Source or Destination Address: 192.168.0.1" size="4" pos="30" show="192.168.0.1" value="c0a80001"/>
    <field name="ip.dst_host" showname="Destination Host: 192.168.0.1" size="4" pos="30" show="192.168.0.1" value="c0a80001"/>
    <field name="ip.host" showname="Source or Destination Host: 192.168.0.1" size="4" pos="30" show="192.168.0.1" value="c0a80001"/>
    <field name="" show="Source GeoIP: Unknown" size="4" pos="26" value="c0a80059"/>
    <field name="" show="Destination GeoIP: Unknown" size="4" pos="30" value="c0a80001"/>
  </proto>
  <proto name="fake-field-wrapper">
  <field name="_ws.lua.fake" showname="Wireshark Lua fake item" size="0" pos="34" show="" value=""/>
</proto>
<proto name="myicmp" showname="MyICMP Protocol" size="40" pos="34">
  <proto name="fake-field-wrapper">
  <field name="mydns.type" showname=".... 1000 = Type: Echo Request (8)" size="1" pos="34" show="8" value="8" unmaskedvalue="08"/>
</proto>
<field name="mydns.code" showname="Code: 0" size="1" pos="35" show="0" value="00"/>
<field name="mydns.checksum" showname="Checksum: 16476" size="2" pos="36" show="16476" value="405c"/>
</proto>
</packet>


<packet>
  <proto name="geninfo" pos="0" showname="General information" size="74">
    <field name="num" pos="0" show="8" showname="Number" value="8" size="74"/>
    <field name="len" pos="0" show="74" showname="Frame Length" value="4a" size="74"/>
    <field name="caplen" pos="0" show="74" showname="Captured Length" value="4a" size="74"/>
    <field name="timestamp" pos="0" show="Jun 26, 2011 21:21:29.025498000 Mountain Daylight Time" showname="Captured Time" value="1309144889.025498000" size="74"/>
  </proto>
  <proto name="frame" showname="Frame 8: 74 bytes on wire (592 bits), 74 bytes captured (592 bits)" size="74" pos="0">
    <field name="frame.encap_type" showname="Encapsulation type: Ethernet (1)" size="0" pos="0" show="1"/>
    <field name="frame.time" showname="Arrival Time: Jun 26, 2011 21:21:29.025498000 Mountain Daylight Time" size="0" pos="0" show="Jun 26, 2011 21:21:29.025498000 Mountain Daylight Time"/>
    <field name="frame.offset_shift" showname="Time shift for this packet: 0.000000000 seconds" size="0" pos="0" show="0.000000000"/>
    <field name="frame.time_epoch" showname="Epoch Time: 1309144889.025498000 seconds" size="0" pos="0" show="1309144889.025498000"/>
    <field name="frame.time_delta" showname="Time delta from previous captured frame: 0.000025000 seconds" size="0" pos="0" show="0.000025000"/>
    <field name="frame.time_delta_displayed" showname="Time delta from previous displayed frame: 0.000025000 seconds" size="0" pos="0" show="0.000025000"/>
    <field name="frame.time_relative" showname="Time since reference or first frame: 2.001235000 seconds" size="0" pos="0" show="2.001235000"/>
    <field name="frame.number" showname="Frame Number: 8" size="0" pos="0" show="8"/>
    <field name="frame.len" showname="Frame Length: 74 bytes (592 bits)" size="0" pos="0" show="74"/>
    <field name="frame.cap_len" showname="Capture Length: 74 bytes (592 bits)" size="0" pos="0" show="74"/>
    <field name="frame.marked" showname="Frame is marked: False" size="0" pos="0" show="0"/>
    <field name="frame.ignored" showname="Frame is ignored: False" size="0" pos="0" show="0"/>
    <field name="frame.protocols" showname="Protocols in frame: eth:ethertype:ip:myicmp" size="0" pos="0" show="eth:ethertype:ip:myicmp"/>
  </proto>
  <proto name="eth" showname="Ethernet II, Src: LiteonTe_3f:98:91 (00:22:5f:3f:98:91), Dst: Cisco_13:b9:a0 (00:0c:ce:13:b9:a0)" size="14" pos="0">
    <field name="eth.dst" showname="Destination: Cisco_13:b9:a0 (00:0c:ce:13:b9:a0)" size="6" pos="0" show="00:0c:ce:13:b9:a0" value="000cce13b9a0">
      <field name="eth.dst_resolved" showname="Destination (resolved): Cisco_13:b9:a0" size="6" pos="0" show="Cisco_13:b9:a0" value="000cce13b9a0"/>
      <field name="eth.addr" showname="Address: Cisco_13:b9:a0 (00:0c:ce:13:b9:a0)" size="6" pos="0" show="00:0c:ce:13:b9:a0" value="000cce13b9a0"/>
      <field name="eth.addr_resolved" showname="Address (resolved): Cisco_13:b9:a0" size="6" pos="0" show="Cisco_13:b9:a0" value="000cce13b9a0"/>
      <field name="eth.lg" showname=".... ..0. .... .... .... .... = LG bit: Globally unique address (factory default)" size="3" pos="0" show="0" value="0" unmaskedvalue="000cce"/>
      <field name="eth.ig" showname=".... ...0 .... .... .... .... = IG bit: Individual address (unicast)" size="3" pos="0" show="0" value="0" unmaskedvalue="000cce"/>
    </field>
    <field name="eth.src" showname="Source: LiteonTe_3f:98:91 (00:22:5f:3f:98:91)" size="6" pos="6" show="00:22:5f:3f:98:91" value="00225f3f9891">
      <field name="eth.src_resolved" showname="Source (resolved): LiteonTe_3f:98:91" size="6" pos="6" show="LiteonTe_3f:98:91" value="00225f3f9891"/>
      <field name="eth.addr" showname="Address: LiteonTe_3f:98:91 (00:22:5f:3f:98:91)" size="6" pos="6" show="00:22:5f:3f:98:91" value="00225f3f9891"/>
      <field name="eth.addr_resolved" showname="Address (resolved): LiteonTe_3f:98:91" size="6" pos="6" show="LiteonTe_3f:98:91" value="00225f3f9891"/>
      <field name="eth.lg" showname=".... ..0. .... .... .... .... = LG bit: Globally unique address (factory default)" size="3" pos="6" show="0" value="0" unmaskedvalue="00225f"/>
      <field name="eth.ig" showname=".... ...0 .... .... .... .... = IG bit: Individual address (unicast)" size="3" pos="6" show="0" value="0" unmaskedvalue="00225f"/>
    </field>
    <field name="eth.type" showname="Type: IPv4 (0x0800)" size="2" pos="12" show="0x00000800" value="0800"/>
  </proto>
  <proto name="ip" showname="Internet Protocol Version 4, Src: 192.168.0.89, Dst: 192.168.0.1" size="20" pos="14">
    <field name="ip.version" showname="0100 .... = Version: 4" size="1" pos="14" show="4" value="4" unmaskedvalue="45"/>
    <field name="ip.hdr_len" showname=".... 0101 = Header Length: 20 bytes (5)" size="1" pos="14" show="20" value="45"/>
    <field name="ip.dsfield" showname="Differentiated Services Field: 0x00 (DSCP: CS0, ECN: Not-ECT)" size="1" pos="15" show="0x00000000" value="00">
      <field name="ip.dsfield.dscp" showname="0000 00.. = Differentiated Services Codepoint: Default (0)" size="1" pos="15" show="0" value="0" unmaskedvalue="00"/>
      <field name="ip.dsfield.ecn" showname=".... ..00 = Explicit Congestion Notification: Not ECN-Capable Transport (0)" size="1" pos="15" show="0" value="0" unmaskedvalue="00"/>
    </field>
    <field name="ip.len" showname="Total Length: 60" size="2" pos="16" show="60" value="003c"/>
    <field name="ip.id" showname="Identification: 0xc644 (50756)" size="2" pos="18" show="0x0000c644" value="c644"/>
    <field name="ip.flags" showname="Flags: 0x00" size="1" pos="20" show="0x00000000" value="00">
      <field name="ip.flags.rb" showname="0... .... = Reserved bit: Not set" size="1" pos="20" show="0" value="00"/>
      <field name="ip.flags.df" showname=".0.. .... = Don&#x27;t fragment: Not set" size="1" pos="20" show="0" value="00"/>
      <field name="ip.flags.mf" showname="..0. .... = More fragments: Not set" size="1" pos="20" show="0" value="00"/>
    </field>
    <field name="ip.frag_offset" showname="Fragment offset: 0" size="2" pos="20" show="0" value="0000"/>
    <field name="ip.ttl" showname="Time to live: 128" size="1" pos="22" show="128" value="80"/>
    <field name="ip.proto" showname="Protocol: ICMP (1)" size="1" pos="23" show="1" value="01"/>
    <field name="ip.checksum" showname="Header checksum: 0xf2d1 [validation disabled]" size="2" pos="24" show="0x0000f2d1" value="f2d1"/>
    <field name="ip.checksum.status" showname="Header checksum status: Unverified" size="0" pos="24" show="2"/>
    <field name="ip.src" showname="Source: 192.168.0.89" size="4" pos="26" show="192.168.0.89" value="c0a80059"/>
    <field name="ip.addr" showname="Source or Destination Address: 192.168.0.89" size="4" pos="26" show="192.168.0.89" value="c0a80059"/>
    <field name="ip.src_host" showname="Source Host: 192.168.0.89" size="4" pos="26" show="192.168.0.89" value="c0a80059"/>
    <field name="ip.host" showname="Source or Destination Host: 192.168.0.89" size="4" pos="26" show="192.168.0.89" value="c0a80059"/>
    <field name="ip.dst" showname="Destination: 192.168.0.1" size="4" pos="30" show="192.168.0.1" value="c0a80001"/>
    <field name="ip.addr" showname="Source or Destination Address: 192.168.0.1" size="4" pos="30" show="192.168.0.1" value="c0a80001"/>
    <field name="ip.dst_host" showname="Destination Host: 192.168.0.1" size="4" pos="30" show="192.168.0.1" value="c0a80001"/>
    <field name="ip.host" showname="Source or Destination Host: 192.168.0.1" size="4" pos="30" show="192.168.0.1" value="c0a80001"/>
    <field name="" show="Source GeoIP: Unknown" size="4" pos="26" value="c0a80059"/>
    <field name="" show="Destination GeoIP: Unknown" size="4" pos="30" value="c0a80001"/>
  </proto>
  <proto name="fake-field-wrapper">
  <field name="_ws.lua.fake" showname="Wireshark Lua fake item" size="0" pos="34" show="" value=""/>
</proto>
<proto name="myicmp" showname="MyICMP Protocol" size="40" pos="34">
  <proto name="fake-field-wrapper">
  <field name="mydns.type" showname=".... 1000 = Type: Echo Request (8)" size="1" pos="34" show="8" value="8" unmaskedvalue="08"/>
</proto>
<field name="mydns.code" showname="Code: 0" size="1" pos="35" show="0" value="00"/>
<field name="mydns.checksum" showname="Checksum: 16476" size="2" pos="36" show="16476" value="405c"/>
</proto>
</packet>


<packet>
  <proto name="geninfo" pos="0" showname="General information" size="74">
    <field name="num" pos="0" show="9" showname="Number" value="9" size="74"/>
    <field name="len" pos="0" show="74" showname="Frame Length" value="4a" size="74"/>
    <field name="caplen" pos="0" show="74" showname="Captured Length" value="4a" size="74"/>
    <field name="timestamp" pos="0" show="Jun 26, 2011 21:21:29.029740000 Mountain Daylight Time" showname="Captured Time" value="1309144889.029740000" size="74"/>
  </proto>
  <proto name="frame" showname="Frame 9: 74 bytes on wire (592 bits), 74 bytes captured (592 bits)" size="74" pos="0">
    <field name="frame.encap_type" showname="Encapsulation type: Ethernet (1)" size="0" pos="0" show="1"/>
    <field name="frame.time" showname="Arrival Time: Jun 26, 2011 21:21:29.029740000 Mountain Daylight Time" size="0" pos="0" show="Jun 26, 2011 21:21:29.029740000 Mountain Daylight Time"/>
    <field name="frame.offset_shift" showname="Time shift for this packet: 0.000000000 seconds" size="0" pos="0" show="0.000000000"/>
    <field name="frame.time_epoch" showname="Epoch Time: 1309144889.029740000 seconds" size="0" pos="0" show="1309144889.029740000"/>
    <field name="frame.time_delta" showname="Time delta from previous captured frame: 0.004242000 seconds" size="0" pos="0" show="0.004242000"/>
    <field name="frame.time_delta_displayed" showname="Time delta from previous displayed frame: 0.004242000 seconds" size="0" pos="0" show="0.004242000"/>
    <field name="frame.time_relative" showname="Time since reference or first frame: 2.005477000 seconds" size="0" pos="0" show="2.005477000"/>
    <field name="frame.number" showname="Frame Number: 9" size="0" pos="0" show="9"/>
    <field name="frame.len" showname="Frame Length: 74 bytes (592 bits)" size="0" pos="0" show="74"/>
    <field name="frame.cap_len" showname="Capture Length: 74 bytes (592 bits)" size="0" pos="0" show="74"/>
    <field name="frame.marked" showname="Frame is marked: False" size="0" pos="0" show="0"/>
    <field name="frame.ignored" showname="Frame is ignored: False" size="0" pos="0" show="0"/>
    <field name="frame.protocols" showname="Protocols in frame: eth:ethertype:ip:myicmp" size="0" pos="0" show="eth:ethertype:ip:myicmp"/>
  </proto>
  <proto name="eth" showname="Ethernet II, Src: Cisco_13:b9:a0 (00:0c:ce:13:b9:a0), Dst: LiteonTe_3f:98:91 (00:22:5f:3f:98:91)" size="14" pos="0">
    <field name="eth.dst" showname="Destination: LiteonTe_3f:98:91 (00:22:5f:3f:98:91)" size="6" pos="0" show="00:22:5f:3f:98:91" value="00225f3f9891">
      <field name="eth.dst_resolved" showname="Destination (resolved): LiteonTe_3f:98:91" size="6" pos="0" show="LiteonTe_3f:98:91" value="00225f3f9891"/>
      <field name="eth.addr" showname="Address: LiteonTe_3f:98:91 (00:22:5f:3f:98:91)" size="6" pos="0" show="00:22:5f:3f:98:91" value="00225f3f9891"/>
      <field name="eth.addr_resolved" showname="Address (resolved): LiteonTe_3f:98:91" size="6" pos="0" show="LiteonTe_3f:98:91" value="00225f3f9891"/>
      <field name="eth.lg" showname=".... ..0. .... .... .... .... = LG bit: Globally unique address (factory default)" size="3" pos="0" show="0" value="0" unmaskedvalue="00225f"/>
      <field name="eth.ig" showname=".... ...0 .... .... .... .... = IG bit: Individual address (unicast)" size="3" pos="0" show="0" value="0" unmaskedvalue="00225f"/>
    </field>
    <field name="eth.src" showname="Source: Cisco_13:b9:a0 (00:0c:ce:13:b9:a0)" size="6" pos="6" show="00:0c:ce:13:b9:a0" value="000cce13b9a0">
      <field name="eth.src_resolved" showname="Source (resolved): Cisco_13:b9:a0" size="6" pos="6" show="Cisco_13:b9:a0" value="000cce13b9a0"/>
      <field name="eth.addr" showname="Address: Cisco_13:b9:a0 (00:0c:ce:13:b9:a0)" size="6" pos="6" show="00:0c:ce:13:b9:a0" value="000cce13b9a0"/>
      <field name="eth.addr_resolved" showname="Address (resolved): Cisco_13:b9:a0" size="6" pos="6" show="Cisco_13:b9:a0" value="000cce13b9a0"/>
      <field name="eth.lg" showname=".... ..0. .... .... .... .... = LG bit: Globally unique address (factory default)" size="3" pos="6" show="0" value="0" unmaskedvalue="000cce"/>
      <field name="eth.ig" showname=".... ...0 .... .... .... .... = IG bit: Individual address (unicast)" size="3" pos="6" show="0" value="0" unmaskedvalue="000cce"/>
    </field>
    <field name="eth.type" showname="Type: IPv4 (0x0800)" size="2" pos="12" show="0x00000800" value="0800"/>
  </proto>
  <proto name="ip" showname="Internet Protocol Version 4, Src: 192.168.0.1, Dst: 192.168.0.89" size="20" pos="14">
    <field name="ip.version" showname="0100 .... = Version: 4" size="1" pos="14" show="4" value="4" unmaskedvalue="45"/>
    <field name="ip.hdr_len" showname=".... 0101 = Header Length: 20 bytes (5)" size="1" pos="14" show="20" value="45"/>
    <field name="ip.dsfield" showname="Differentiated Services Field: 0x00 (DSCP: CS0, ECN: Not-ECT)" size="1" pos="15" show="0x00000000" value="00">
      <field name="ip.dsfield.dscp" showname="0000 00.. = Differentiated Services Codepoint: Default (0)" size="1" pos="15" show="0" value="0" unmaskedvalue="00"/>
      <field name="ip.dsfield.ecn" showname=".... ..00 = Explicit Congestion Notification: Not ECN-Capable Transport (0)" size="1" pos="15" show="0" value="0" unmaskedvalue="00"/>
    </field>
    <field name="ip.len" showname="Total Length: 60" size="2" pos="16" show="60" value="003c"/>
    <field name="ip.id" showname="Identification: 0xc644 (50756)" size="2" pos="18" show="0x0000c644" value="c644"/>
    <field name="ip.flags" showname="Flags: 0x00" size="1" pos="20" show="0x00000000" value="00">
      <field name="ip.flags.rb" showname="0... .... = Reserved bit: Not set" size="1" pos="20" show="0" value="00"/>
      <field name="ip.flags.df" showname=".0.. .... = Don&#x27;t fragment: Not set" size="1" pos="20" show="0" value="00"/>
      <field name="ip.flags.mf" showname="..0. .... = More fragments: Not set" size="1" pos="20" show="0" value="00"/>
    </field>
    <field name="ip.frag_offset" showname="Fragment offset: 0" size="2" pos="20" show="0" value="0000"/>
    <field name="ip.ttl" showname="Time to live: 255" size="1" pos="22" show="255" value="ff"/>
    <field name="ip.proto" showname="Protocol: ICMP (1)" size="1" pos="23" show="1" value="01"/>
    <field name="ip.checksum" showname="Header checksum: 0x73d1 [validation disabled]" size="2" pos="24" show="0x000073d1" value="73d1"/>
    <field name="ip.checksum.status" showname="Header checksum status: Unverified" size="0" pos="24" show="2"/>
    <field name="ip.src" showname="Source: 192.168.0.1" size="4" pos="26" show="192.168.0.1" value="c0a80001"/>
    <field name="ip.addr" showname="Source or Destination Address: 192.168.0.1" size="4" pos="26" show="192.168.0.1" value="c0a80001"/>
    <field name="ip.src_host" showname="Source Host: 192.168.0.1" size="4" pos="26" show="192.168.0.1" value="c0a80001"/>
    <field name="ip.host" showname="Source or Destination Host: 192.168.0.1" size="4" pos="26" show="192.168.0.1" value="c0a80001"/>
    <field name="ip.dst" showname="Destination: 192.168.0.89" size="4" pos="30" show="192.168.0.89" value="c0a80059"/>
    <field name="ip.addr" showname="Source or Destination Address: 192.168.0.89" size="4" pos="30" show="192.168.0.89" value="c0a80059"/>
    <field name="ip.dst_host" showname="Destination Host: 192.168.0.89" size="4" pos="30" show="192.168.0.89" value="c0a80059"/>
    <field name="ip.host" showname="Source or Destination Host: 192.168.0.89" size="4" pos="30" show="192.168.0.89" value="c0a80059"/>
    <field name="" show="Source GeoIP: Unknown" size="4" pos="26" value="c0a80001"/>
    <field name="" show="Destination GeoIP: Unknown" size="4" pos="30" value="c0a80059"/>
  </proto>
  <proto name="fake-field-wrapper">
  <field name="_ws.lua.fake" showname="Wireshark Lua fake item" size="0" pos="34" show="" value=""/>
</proto>
<proto name="myicmp" showname="MyICMP Protocol" size="40" pos="34">
  <proto name="fake-field-wrapper">
  <field name="mydns.type" showname=".... 0000 = Type: Echo Reply (0)" size="1" pos="34" show="0" value="0" unmaskedvalue="00"/>
</proto>
<field name="mydns.code" showname="Code: 0" size="1" pos="35" show="0" value="00"/>
<field name="mydns.checksum" showname="Checksum: 18524" size="2" pos="36" show="18524" value="485c"/>
</proto>
</packet>


<packet>
  <proto name="geninfo" pos="0" showname="General information" size="74">
    <field name="num" pos="0" show="10" showname="Number" value="a" size="74"/>
    <field name="len" pos="0" show="74" showname="Frame Length" value="4a" size="74"/>
    <field name="caplen" pos="0" show="74" showname="Captured Length" value="4a" size="74"/>
    <field name="timestamp" pos="0" show="Jun 26, 2011 21:21:30.026576000 Mountain Daylight Time" showname="Captured Time" value="1309144890.026576000" size="74"/>
  </proto>
  <proto name="frame" showname="Frame 10: 74 bytes on wire (592 bits), 74 bytes captured (592 bits)" size="74" pos="0">
    <field name="frame.encap_type" showname="Encapsulation type: Ethernet (1)" size="0" pos="0" show="1"/>
    <field name="frame.time" showname="Arrival Time: Jun 26, 2011 21:21:30.026576000 Mountain Daylight Time" size="0" pos="0" show="Jun 26, 2011 21:21:30.026576000 Mountain Daylight Time"/>
    <field name="frame.offset_shift" showname="Time shift for this packet: 0.000000000 seconds" size="0" pos="0" show="0.000000000"/>
    <field name="frame.time_epoch" showname="Epoch Time: 1309144890.026576000 seconds" size="0" pos="0" show="1309144890.026576000"/>
    <field name="frame.time_delta" showname="Time delta from previous captured frame: 0.996836000 seconds" size="0" pos="0" show="0.996836000"/>
    <field name="frame.time_delta_displayed" showname="Time delta from previous displayed frame: 0.996836000 seconds" size="0" pos="0" show="0.996836000"/>
    <field name="frame.time_relative" showname="Time since reference or first frame: 3.002313000 seconds" size="0" pos="0" show="3.002313000"/>
    <field name="frame.number" showname="Frame Number: 10" size="0" pos="0" show="10"/>
    <field name="frame.len" showname="Frame Length: 74 bytes (592 bits)" size="0" pos="0" show="74"/>
    <field name="frame.cap_len" showname="Capture Length: 74 bytes (592 bits)" size="0" pos="0" show="74"/>
    <field name="frame.marked" showname="Frame is marked: False" size="0" pos="0" show="0"/>
    <field name="frame.ignored" showname="Frame is ignored: False" size="0" pos="0" show="0"/>
    <field name="frame.protocols" showname="Protocols in frame: eth:ethertype:ip:myicmp" size="0" pos="0" show="eth:ethertype:ip:myicmp"/>
  </proto>
  <proto name="eth" showname="Ethernet II, Src: LiteonTe_3f:98:91 (00:22:5f:3f:98:91), Dst: Cisco_13:b9:a0 (00:0c:ce:13:b9:a0)" size="14" pos="0">
    <field name="eth.dst" showname="Destination: Cisco_13:b9:a0 (00:0c:ce:13:b9:a0)" size="6" pos="0" show="00:0c:ce:13:b9:a0" value="000cce13b9a0">
      <field name="eth.dst_resolved" showname="Destination (resolved): Cisco_13:b9:a0" size="6" pos="0" show="Cisco_13:b9:a0" value="000cce13b9a0"/>
      <field name="eth.addr" showname="Address: Cisco_13:b9:a0 (00:0c:ce:13:b9:a0)" size="6" pos="0" show="00:0c:ce:13:b9:a0" value="000cce13b9a0"/>
      <field name="eth.addr_resolved" showname="Address (resolved): Cisco_13:b9:a0" size="6" pos="0" show="Cisco_13:b9:a0" value="000cce13b9a0"/>
      <field name="eth.lg" showname=".... ..0. .... .... .... .... = LG bit: Globally unique address (factory default)" size="3" pos="0" show="0" value="0" unmaskedvalue="000cce"/>
      <field name="eth.ig" showname=".... ...0 .... .... .... .... = IG bit: Individual address (unicast)" size="3" pos="0" show="0" value="0" unmaskedvalue="000cce"/>
    </field>
    <field name="eth.src" showname="Source: LiteonTe_3f:98:91 (00:22:5f:3f:98:91)" size="6" pos="6" show="00:22:5f:3f:98:91" value="00225f3f9891">
      <field name="eth.src_resolved" showname="Source (resolved): LiteonTe_3f:98:91" size="6" pos="6" show="LiteonTe_3f:98:91" value="00225f3f9891"/>
      <field name="eth.addr" showname="Address: LiteonTe_3f:98:91 (00:22:5f:3f:98:91)" size="6" pos="6" show="00:22:5f:3f:98:91" value="00225f3f9891"/>
      <field name="eth.addr_resolved" showname="Address (resolved): LiteonTe_3f:98:91" size="6" pos="6" show="LiteonTe_3f:98:91" value="00225f3f9891"/>
      <field name="eth.lg" showname=".... ..0. .... .... .... .... = LG bit: Globally unique address (factory default)" size="3" pos="6" show="0" value="0" unmaskedvalue="00225f"/>
      <field name="eth.ig" showname=".... ...0 .... .... .... .... = IG bit: Individual address (unicast)" size="3" pos="6" show="0" value="0" unmaskedvalue="00225f"/>
    </field>
    <field name="eth.type" showname="Type: IPv4 (0x0800)" size="2" pos="12" show="0x00000800" value="0800"/>
  </proto>
  <proto name="ip" showname="Internet Protocol Version 4, Src: 192.168.0.89, Dst: 192.168.0.1" size="20" pos="14">
    <field name="ip.version" showname="0100 .... = Version: 4" size="1" pos="14" show="4" value="4" unmaskedvalue="45"/>
    <field name="ip.hdr_len" showname=".... 0101 = Header Length: 20 bytes (5)" size="1" pos="14" show="20" value="45"/>
    <field name="ip.dsfield" showname="Differentiated Services Field: 0x00 (DSCP: CS0, ECN: Not-ECT)" size="1" pos="15" show="0x00000000" value="00">
      <field name="ip.dsfield.dscp" showname="0000 00.. = Differentiated Services Codepoint: Default (0)" size="1" pos="15" show="0" value="0" unmaskedvalue="00"/>
      <field name="ip.dsfield.ecn" showname=".... ..00 = Explicit Congestion Notification: Not ECN-Capable Transport (0)" size="1" pos="15" show="0" value="0" unmaskedvalue="00"/>
    </field>
    <field name="ip.len" showname="Total Length: 60" size="2" pos="16" show="60" value="003c"/>
    <field name="ip.id" showname="Identification: 0xc645 (50757)" size="2" pos="18" show="0x0000c645" value="c645"/>
    <field name="ip.flags" showname="Flags: 0x00" size="1" pos="20" show="0x00000000" value="00">
      <field name="ip.flags.rb" showname="0... .... = Reserved bit: Not set" size="1" pos="20" show="0" value="00"/>
      <field name="ip.flags.df" showname=".0.. .... = Don&#x27;t fragment: Not set" size="1" pos="20" show="0" value="00"/>
      <field name="ip.flags.mf" showname="..0. .... = More fragments: Not set" size="1" pos="20" show="0" value="00"/>
    </field>
    <field name="ip.frag_offset" showname="Fragment offset: 0" size="2" pos="20" show="0" value="0000"/>
    <field name="ip.ttl" showname="Time to live: 128" size="1" pos="22" show="128" value="80"/>
    <field name="ip.proto" showname="Protocol: ICMP (1)" size="1" pos="23" show="1" value="01"/>
    <field name="ip.checksum" showname="Header checksum: 0xf2d0 [validation disabled]" size="2" pos="24" show="0x0000f2d0" value="f2d0"/>
    <field name="ip.checksum.status" showname="Header checksum status: Unverified" size="0" pos="24" show="2"/>
    <field name="ip.src" showname="Source: 192.168.0.89" size="4" pos="26" show="192.168.0.89" value="c0a80059"/>
    <field name="ip.addr" showname="Source or Destination Address: 192.168.0.89" size="4" pos="26" show="192.168.0.89" value="c0a80059"/>
    <field name="ip.src_host" showname="Source Host: 192.168.0.89" size="4" pos="26" show="192.168.0.89" value="c0a80059"/>
    <field name="ip.host" showname="Source or Destination Host: 192.168.0.89" size="4" pos="26" show="192.168.0.89" value="c0a80059"/>
    <field name="ip.dst" showname="Destination: 192.168.0.1" size="4" pos="30" show="192.168.0.1" value="c0a80001"/>
    <field name="ip.addr" showname="Source or Destination Address: 192.168.0.1" size="4" pos="30" show="192.168.0.1" value="c0a80001"/>
    <field name="ip.dst_host" showname="Destination Host: 192.168.0.1" size="4" pos="30" show="192.168.0.1" value="c0a80001"/>
    <field name="ip.host" showname="Source or Destination Host: 192.168.0.1" size="4" pos="30" show="192.168.0.1" value="c0a80001"/>
    <field name="" show="Source GeoIP: Unknown" size="4" pos="26" value="c0a80059"/>
    <field name="" show="Destination GeoIP: Unknown" size="4" pos="30" value="c0a80001"/>
  </proto>
  <proto name="fake-field-wrapper">
  <field name="_ws.lua.fake" showname="Wireshark Lua fake item" size="0" pos="34" show="" value=""/>
</proto>
<proto name="myicmp" showname="MyICMP Protocol" size="40" pos="34">
  <proto name="fake-field-wrapper">
  <field name="mydns.type" showname=".... 1000 = Type: Echo Request (8)" size="1" pos="34" show="8" value="8" unmaskedvalue="08"/>
</proto>
<field name="mydns.code" showname="Code: 0" size="1" pos="35" show="0" value="00"/>
<field name="mydns.checksum" showname="Checksum: 16220" size="2" pos="36" show="16220" value="3f5c"/>
</proto>
</packet>


<packet>
  <proto name="geninfo" pos="0" showname="General information" size="74">
    <field name="num" pos="0" show="11" showname="Number" value="b" size="74"/>
    <field name="len" pos="0" show="74" showname="Frame Length" value="4a" size="74"/>
    <field name="caplen" pos="0" show="74" showname="Captured Length" value="4a" size="74"/>
    <field name="timestamp" pos="0" show="Jun 26, 2011 21:21:30.026605000 Mountain Daylight Time" showname="Captured Time" value="1309144890.026605000" size="74"/>
  </proto>
  <proto name="frame" showname="Frame 11: 74 bytes on wire (592 bits), 74 bytes captured (592 bits)" size="74" pos="0">
    <field name="frame.encap_type" showname="Encapsulation type: Ethernet (1)" size="0" pos="0" show="1"/>
    <field name="frame.time" showname="Arrival Time: Jun 26, 2011 21:21:30.026605000 Mountain Daylight Time" size="0" pos="0" show="Jun 26, 2011 21:21:30.026605000 Mountain Daylight Time"/>
    <field name="frame.offset_shift" showname="Time shift for this packet: 0.000000000 seconds" size="0" pos="0" show="0.000000000"/>
    <field name="frame.time_epoch" showname="Epoch Time: 1309144890.026605000 seconds" size="0" pos="0" show="1309144890.026605000"/>
    <field name="frame.time_delta" showname="Time delta from previous captured frame: 0.000029000 seconds" size="0" pos="0" show="0.000029000"/>
    <field name="frame.time_delta_displayed" showname="Time delta from previous displayed frame: 0.000029000 seconds" size="0" pos="0" show="0.000029000"/>
    <field name="frame.time_relative" showname="Time since reference or first frame: 3.002342000 seconds" size="0" pos="0" show="3.002342000"/>
    <field name="frame.number" showname="Frame Number: 11" size="0" pos="0" show="11"/>
    <field name="frame.len" showname="Frame Length: 74 bytes (592 bits)" size="0" pos="0" show="74"/>
    <field name="frame.cap_len" showname="Capture Length: 74 bytes (592 bits)" size="0" pos="0" show="74"/>
    <field name="frame.marked" showname="Frame is marked: False" size="0" pos="0" show="0"/>
    <field name="frame.ignored" showname="Frame is ignored: False" size="0" pos="0" show="0"/>
    <field name="frame.protocols" showname="Protocols in frame: eth:ethertype:ip:myicmp" size="0" pos="0" show="eth:ethertype:ip:myicmp"/>
  </proto>
  <proto name="eth" showname="Ethernet II, Src: LiteonTe_3f:98:91 (00:22:5f:3f:98:91), Dst: Cisco_13:b9:a0 (00:0c:ce:13:b9:a0)" size="14" pos="0">
    <field name="eth.dst" showname="Destination: Cisco_13:b9:a0 (00:0c:ce:13:b9:a0)" size="6" pos="0" show="00:0c:ce:13:b9:a0" value="000cce13b9a0">
      <field name="eth.dst_resolved" showname="Destination (resolved): Cisco_13:b9:a0" size="6" pos="0" show="Cisco_13:b9:a0" value="000cce13b9a0"/>
      <field name="eth.addr" showname="Address: Cisco_13:b9:a0 (00:0c:ce:13:b9:a0)" size="6" pos="0" show="00:0c:ce:13:b9:a0" value="000cce13b9a0"/>
      <field name="eth.addr_resolved" showname="Address (resolved): Cisco_13:b9:a0" size="6" pos="0" show="Cisco_13:b9:a0" value="000cce13b9a0"/>
      <field name="eth.lg" showname=".... ..0. .... .... .... .... = LG bit: Globally unique address (factory default)" size="3" pos="0" show="0" value="0" unmaskedvalue="000cce"/>
      <field name="eth.ig" showname=".... ...0 .... .... .... .... = IG bit: Individual address (unicast)" size="3" pos="0" show="0" value="0" unmaskedvalue="000cce"/>
    </field>
    <field name="eth.src" showname="Source: LiteonTe_3f:98:91 (00:22:5f:3f:98:91)" size="6" pos="6" show="00:22:5f:3f:98:91" value="00225f3f9891">
      <field name="eth.src_resolved" showname="Source (resolved): LiteonTe_3f:98:91" size="6" pos="6" show="LiteonTe_3f:98:91" value="00225f3f9891"/>
      <field name="eth.addr" showname="Address: LiteonTe_3f:98:91 (00:22:5f:3f:98:91)" size="6" pos="6" show="00:22:5f:3f:98:91" value="00225f3f9891"/>
      <field name="eth.addr_resolved" showname="Address (resolved): LiteonTe_3f:98:91" size="6" pos="6" show="LiteonTe_3f:98:91" value="00225f3f9891"/>
      <field name="eth.lg" showname=".... ..0. .... .... .... .... = LG bit: Globally unique address (factory default)" size="3" pos="6" show="0" value="0" unmaskedvalue="00225f"/>
      <field name="eth.ig" showname=".... ...0 .... .... .... .... = IG bit: Individual address (unicast)" size="3" pos="6" show="0" value="0" unmaskedvalue="00225f"/>
    </field>
    <field name="eth.type" showname="Type: IPv4 (0x0800)" size="2" pos="12" show="0x00000800" value="0800"/>
  </proto>
  <proto name="ip" showname="Internet Protocol Version 4, Src: 192.168.0.89, Dst: 192.168.0.1" size="20" pos="14">
    <field name="ip.version" showname="0100 .... = Version: 4" size="1" pos="14" show="4" value="4" unmaskedvalue="45"/>
    <field name="ip.hdr_len" showname=".... 0101 = Header Length: 20 bytes (5)" size="1" pos="14" show="20" value="45"/>
    <field name="ip.dsfield" showname="Differentiated Services Field: 0x00 (DSCP: CS0, ECN: Not-ECT)" size="1" pos="15" show="0x00000000" value="00">
      <field name="ip.dsfield.dscp" showname="0000 00.. = Differentiated Services Codepoint: Default (0)" size="1" pos="15" show="0" value="0" unmaskedvalue="00"/>
      <field name="ip.dsfield.ecn" showname=".... ..00 = Explicit Congestion Notification: Not ECN-Capable Transport (0)" size="1" pos="15" show="0" value="0" unmaskedvalue="00"/>
    </field>
    <field name="ip.len" showname="Total Length: 60" size="2" pos="16" show="60" value="003c"/>
    <field name="ip.id" showname="Identification: 0xc645 (50757)" size="2" pos="18" show="0x0000c645" value="c645"/>
    <field name="ip.flags" showname="Flags: 0x00" size="1" pos="20" show="0x00000000" value="00">
      <field name="ip.flags.rb" showname="0... .... = Reserved bit: Not set" size="1" pos="20" show="0" value="00"/>
      <field name="ip.flags.df" showname=".0.. .... = Don&#x27;t fragment: Not set" size="1" pos="20" show="0" value="00"/>
      <field name="ip.flags.mf" showname="..0. .... = More fragments: Not set" size="1" pos="20" show="0" value="00"/>
    </field>
    <field name="ip.frag_offset" showname="Fragment offset: 0" size="2" pos="20" show="0" value="0000"/>
    <field name="ip.ttl" showname="Time to live: 128" size="1" pos="22" show="128" value="80"/>
    <field name="ip.proto" showname="Protocol: ICMP (1)" size="1" pos="23" show="1" value="01"/>
    <field name="ip.checksum" showname="Header checksum: 0xf2d0 [validation disabled]" size="2" pos="24" show="0x0000f2d0" value="f2d0"/>
    <field name="ip.checksum.status" showname="Header checksum status: Unverified" size="0" pos="24" show="2"/>
    <field name="ip.src" showname="Source: 192.168.0.89" size="4" pos="26" show="192.168.0.89" value="c0a80059"/>
    <field name="ip.addr" showname="Source or Destination Address: 192.168.0.89" size="4" pos="26" show="192.168.0.89" value="c0a80059"/>
    <field name="ip.src_host" showname="Source Host: 192.168.0.89" size="4" pos="26" show="192.168.0.89" value="c0a80059"/>
    <field name="ip.host" showname="Source or Destination Host: 192.168.0.89" size="4" pos="26" show="192.168.0.89" value="c0a80059"/>
    <field name="ip.dst" showname="Destination: 192.168.0.1" size="4" pos="30" show="192.168.0.1" value="c0a80001"/>
    <field name="ip.addr" showname="Source or Destination Address: 192.168.0.1" size="4" pos="30" show="192.168.0.1" value="c0a80001"/>
    <field name="ip.dst_host" showname="Destination Host: 192.168.0.1" size="4" pos="30" show="192.168.0.1" value="c0a80001"/>
    <field name="ip.host" showname="Source or Destination Host: 192.168.0.1" size="4" pos="30" show="192.168.0.1" value="c0a80001"/>
    <field name="" show="Source GeoIP: Unknown" size="4" pos="26" value="c0a80059"/>
    <field name="" show="Destination GeoIP: Unknown" size="4" pos="30" value="c0a80001"/>
  </proto>
  <proto name="fake-field-wrapper">
  <field name="_ws.lua.fake" showname="Wireshark Lua fake item" size="0" pos="34" show="" value=""/>
</proto>
<proto name="myicmp" showname="MyICMP Protocol" size="40" pos="34">
  <proto name="fake-field-wrapper">
  <field name="mydns.type" showname=".... 1000 = Type: Echo Request (8)" size="1" pos="34" show="8" value="8" unmaskedvalue="08"/>
</proto>
<field name="mydns.code" showname="Code: 0" size="1" pos="35" show="0" value="00"/>
<field name="mydns.checksum" showname="Checksum: 16220" size="2" pos="36" show="16220" value="3f5c"/>
</proto>
</packet>


<packet>
  <proto name="geninfo" pos="0" showname="General information" size="74">
    <field name="num" pos="0" show="12" showname="Number" value="c" size="74"/>
    <field name="len" pos="0" show="74" showname="Frame Length" value="4a" size="74"/>
    <field name="caplen" pos="0" show="74" showname="Captured Length" value="4a" size="74"/>
    <field name="timestamp" pos="0" show="Jun 26, 2011 21:21:30.030473000 Mountain Daylight Time" showname="Captured Time" value="1309144890.030473000" size="74"/>
  </proto>
  <proto name="frame" showname="Frame 12: 74 bytes on wire (592 bits), 74 bytes captured (592 bits)" size="74" pos="0">
    <field name="frame.encap_type" showname="Encapsulation type: Ethernet (1)" size="0" pos="0" show="1"/>
    <field name="frame.time" showname="Arrival Time: Jun 26, 2011 21:21:30.030473000 Mountain Daylight Time" size="0" pos="0" show="Jun 26, 2011 21:21:30.030473000 Mountain Daylight Time"/>
    <field name="frame.offset_shift" showname="Time shift for this packet: 0.000000000 seconds" size="0" pos="0" show="0.000000000"/>
    <field name="frame.time_epoch" showname="Epoch Time: 1309144890.030473000 seconds" size="0" pos="0" show="1309144890.030473000"/>
    <field name="frame.time_delta" showname="Time delta from previous captured frame: 0.003868000 seconds" size="0" pos="0" show="0.003868000"/>
    <field name="frame.time_delta_displayed" showname="Time delta from previous displayed frame: 0.003868000 seconds" size="0" pos="0" show="0.003868000"/>
    <field name="frame.time_relative" showname="Time since reference or first frame: 3.006210000 seconds" size="0" pos="0" show="3.006210000"/>
    <field name="frame.number" showname="Frame Number: 12" size="0" pos="0" show="12"/>
    <field name="frame.len" showname="Frame Length: 74 bytes (592 bits)" size="0" pos="0" show="74"/>
    <field name="frame.cap_len" showname="Capture Length: 74 bytes (592 bits)" size="0" pos="0" show="74"/>
    <field name="frame.marked" showname="Frame is marked: False" size="0" pos="0" show="0"/>
    <field name="frame.ignored" showname="Frame is ignored: False" size="0" pos="0" show="0"/>
    <field name="frame.protocols" showname="Protocols in frame: eth:ethertype:ip:myicmp" size="0" pos="0" show="eth:ethertype:ip:myicmp"/>
  </proto>
  <proto name="eth" showname="Ethernet II, Src: Cisco_13:b9:a0 (00:0c:ce:13:b9:a0), Dst: LiteonTe_3f:98:91 (00:22:5f:3f:98:91)" size="14" pos="0">
    <field name="eth.dst" showname="Destination: LiteonTe_3f:98:91 (00:22:5f:3f:98:91)" size="6" pos="0" show="00:22:5f:3f:98:91" value="00225f3f9891">
      <field name="eth.dst_resolved" showname="Destination (resolved): LiteonTe_3f:98:91" size="6" pos="0" show="LiteonTe_3f:98:91" value="00225f3f9891"/>
      <field name="eth.addr" showname="Address: LiteonTe_3f:98:91 (00:22:5f:3f:98:91)" size="6" pos="0" show="00:22:5f:3f:98:91" value="00225f3f9891"/>
      <field name="eth.addr_resolved" showname="Address (resolved): LiteonTe_3f:98:91" size="6" pos="0" show="LiteonTe_3f:98:91" value="00225f3f9891"/>
      <field name="eth.lg" showname=".... ..0. .... .... .... .... = LG bit: Globally unique address (factory default)" size="3" pos="0" show="0" value="0" unmaskedvalue="00225f"/>
      <field name="eth.ig" showname=".... ...0 .... .... .... .... = IG bit: Individual address (unicast)" size="3" pos="0" show="0" value="0" unmaskedvalue="00225f"/>
    </field>
    <field name="eth.src" showname="Source: Cisco_13:b9:a0 (00:0c:ce:13:b9:a0)" size="6" pos="6" show="00:0c:ce:13:b9:a0" value="000cce13b9a0">
      <field name="eth.src_resolved" showname="Source (resolved): Cisco_13:b9:a0" size="6" pos="6" show="Cisco_13:b9:a0" value="000cce13b9a0"/>
      <field name="eth.addr" showname="Address: Cisco_13:b9:a0 (00:0c:ce:13:b9:a0)" size="6" pos="6" show="00:0c:ce:13:b9:a0" value="000cce13b9a0"/>
      <field name="eth.addr_resolved" showname="Address (resolved): Cisco_13:b9:a0" size="6" pos="6" show="Cisco_13:b9:a0" value="000cce13b9a0"/>
      <field name="eth.lg" showname=".... ..0. .... .... .... .... = LG bit: Globally unique address (factory default)" size="3" pos="6" show="0" value="0" unmaskedvalue="000cce"/>
      <field name="eth.ig" showname=".... ...0 .... .... .... .... = IG bit: Individual address (unicast)" size="3" pos="6" show="0" value="0" unmaskedvalue="000cce"/>
    </field>
    <field name="eth.type" showname="Type: IPv4 (0x0800)" size="2" pos="12" show="0x00000800" value="0800"/>
  </proto>
  <proto name="ip" showname="Internet Protocol Version 4, Src: 192.168.0.1, Dst: 192.168.0.89" size="20" pos="14">
    <field name="ip.version" showname="0100 .... = Version: 4" size="1" pos="14" show="4" value="4" unmaskedvalue="45"/>
    <field name="ip.hdr_len" showname=".... 0101 = Header Length: 20 bytes (5)" size="1" pos="14" show="20" value="45"/>
    <field name="ip.dsfield" showname="Differentiated Services Field: 0x00 (DSCP: CS0, ECN: Not-ECT)" size="1" pos="15" show="0x00000000" value="00">
      <field name="ip.dsfield.dscp" showname="0000 00.. = Differentiated Services Codepoint: Default (0)" size="1" pos="15" show="0" value="0" unmaskedvalue="00"/>
      <field name="ip.dsfield.ecn" showname=".... ..00 = Explicit Congestion Notification: Not ECN-Capable Transport (0)" size="1" pos="15" show="0" value="0" unmaskedvalue="00"/>
    </field>
    <field name="ip.len" showname="Total Length: 60" size="2" pos="16" show="60" value="003c"/>
    <field name="ip.id" showname="Identification: 0xc645 (50757)" size="2" pos="18" show="0x0000c645" value="c645"/>
    <field name="ip.flags" showname="Flags: 0x00" size="1" pos="20" show="0x00000000" value="00">
      <field name="ip.flags.rb" showname="0... .... = Reserved bit: Not set" size="1" pos="20" show="0" value="00"/>
      <field name="ip.flags.df" showname=".0.. .... = Don&#x27;t fragment: Not set" size="1" pos="20" show="0" value="00"/>
      <field name="ip.flags.mf" showname="..0. .... = More fragments: Not set" size="1" pos="20" show="0" value="00"/>
    </field>
    <field name="ip.frag_offset" showname="Fragment offset: 0" size="2" pos="20" show="0" value="0000"/>
    <field name="ip.ttl" showname="Time to live: 255" size="1" pos="22" show="255" value="ff"/>
    <field name="ip.proto" showname="Protocol: ICMP (1)" size="1" pos="23" show="1" value="01"/>
    <field name="ip.checksum" showname="Header checksum: 0x73d0 [validation disabled]" size="2" pos="24" show="0x000073d0" value="73d0"/>
    <field name="ip.checksum.status" showname="Header checksum status: Unverified" size="0" pos="24" show="2"/>
    <field name="ip.src" showname="Source: 192.168.0.1" size="4" pos="26" show="192.168.0.1" value="c0a80001"/>
    <field name="ip.addr" showname="Source or Destination Address: 192.168.0.1" size="4" pos="26" show="192.168.0.1" value="c0a80001"/>
    <field name="ip.src_host" showname="Source Host: 192.168.0.1" size="4" pos="26" show="192.168.0.1" value="c0a80001"/>
    <field name="ip.host" showname="Source or Destination Host: 192.168.0.1" size="4" pos="26" show="192.168.0.1" value="c0a80001"/>
    <field name="ip.dst" showname="Destination: 192.168.0.89" size="4" pos="30" show="192.168.0.89" value="c0a80059"/>
    <field name="ip.addr" showname="Source or Destination Address: 192.168.0.89" size="4" pos="30" show="192.168.0.89" value="c0a80059"/>
    <field name="ip.dst_host" showname="Destination Host: 192.168.0.89" size="4" pos="30" show="192.168.0.89" value="c0a80059"/>
    <field name="ip.host" showname="Source or Destination Host: 192.168.0.89" size="4" pos="30" show="192.168.0.89" value="c0a80059"/>
    <field name="" show="Source GeoIP: Unknown" size="4" pos="26" value="c0a80001"/>
    <field name="" show="Destination GeoIP: Unknown" size="4" pos="30" value="c0a80059"/>
  </proto>
  <proto name="fake-field-wrapper">
  <field name="_ws.lua.fake" showname="Wireshark Lua fake item" size="0" pos="34" show="" value=""/>
</proto>
<proto name="myicmp" showname="MyICMP Protocol" size="40" pos="34">
  <proto name="fake-field-wrapper">
  <field name="mydns.type" showname=".... 0000 = Type: Echo Reply (0)" size="1" pos="34" show="0" value="0" unmaskedvalue="00"/>
</proto>
<field name="mydns.code" showname="Code: 0" size="1" pos="35" show="0" value="00"/>
<field name="mydns.checksum" showname="Checksum: 18268" size="2" pos="36" show="18268" value="475c"/>
</proto>
</packet>


</pdml>
